(iee_model
ModelState
p0
(dp1
S'label_column'
p2
I0
sS'rows_2_studies'
p3
(dp4
I0
(idataset.study
Study
p5
(dp6
S'study_id'
p7
I0
sS'variables'
p8
(dp9
(idataset.variable
Variable
p10
(dp11
S'var_id'
p12
I1
sS'sub_type'
p13
NsS'var_type'
p14
I2
sS'label'
p15
S'year'
p16
sbI1993
s(idataset.variable
Variable
p17
(dp18
g12
I5
sg13
Nsg14
I2
sg15
S'tx B #total'
p19
sbI27
s(idataset.variable
Variable
p20
(dp21
g12
I8
sg13
I0
sg14
I1
sg15
S'ln OR'
p22
sbF0.5596157879354227
s(idataset.variable
Variable
p23
(dp24
g12
I6
sg13
Nsg14
I2
sg15
S'tx A #noevents'
p25
sbI21
s(idataset.variable
Variable
p26
(dp27
g12
I7
sg13
Nsg14
I2
sg15
S'tx B # noevents'
p28
sbI18
s(idataset.variable
Variable
p29
(dp30
g12
I3
sg13
Nsg14
I2
sg15
S'tx A #total'
p31
sbI27
s(idataset.variable
Variable
p32
(dp33
g12
I9
sg13
I1
sg14
I1
sg15
S'Var(ln OR)'
p34
sbF0.38095238095238093
s(idataset.variable
Variable
p35
(dp36
g12
I4
sg13
Nsg14
I2
sg15
S'tx B #evts'
p37
sbI9
s(idataset.variable
Variable
p38
(dp39
g12
I2
sg13
Nsg14
I2
sg15
S'tx A #events'
p40
sbI6
ssg15
S'Gonzalez'
p41
sbsI1
(idataset.study
Study
p42
(dp43
g7
I1
sg8
(dp44
g10
I1993
sg17
I64
sg20
F0.8295982832878028
sg23
I56
sg26
I57
sg29
I59
sg32
F0.5115914786967418
sg35
I7
sg38
I3
ssg15
S'Prins'
p45
sbsI2
(idataset.study
Study
p46
(dp47
g7
I2
sg8
(dp48
g10
I1991
sg17
I30
sg20
F2.5769435042473563
sg23
I30
sg26
I25
sg29
I30
sg32
F2.2538207533385934
sg35
I5
sg38
I0
ssg15
S'Giamarellou'
p49
sbsI3
(idataset.study
Study
p50
(dp51
g7
I3
sg8
(dp52
g10
I1993
sg17
I152
sg20
F-0.33722981241502126
sg23
I145
sg26
I139
sg29
I164
sg32
F0.14364545219889985
sg35
I13
sg38
I19
ssg15
S'Maller'
p53
sbsI4
(idataset.study
Study
p54
(dp55
g7
I4
sg8
(dp56
g10
I1989
sg17
I36
sg20
F1.6657908489852318
sg23
I36
sg26
I34
sg29
I36
sg32
F2.4563827675203496
sg35
I2
sg38
I0
ssg15
S'Sturm'
p57
sbsI5
(idataset.study
Study
p58
(dp59
g7
I5
sg8
(dp60
g10
I1991
sg17
I145
sg20
F0.9291879729829805
sg23
I129
sg26
I96
sg29
I155
sg32
F0.07703830637800738
sg35
I49
sg38
I26
ssg15
S'Marik'
p61
sbsI6
(idataset.study
Study
p62
(dp63
g7
I6
sg8
(dp64
g10
I1988
sg17
I35
sg20
F-0.4769240720903092
sg23
I24
sg26
I29
sg29
I32
sg32
F0.367816091954023
sg35
I6
sg38
I8
ssg15
S'Muijsken'
p65
sbsI7
(idataset.study
Study
p66
(dp67
g7
I7
sg8
(dp68
g10
I1992
sg17
I70
sg20
F-1.056939592267542
sg23
I73
sg26
I70
sg29
I74
sg32
F2.6944565060066576
sg35
I0
sg38
I1
ssg15
S'Vigano'
p69
sbsI8
(idataset.study
Study
p70
(dp71
g7
I8
sg8
(dp72
g10
I1988
sg17
I31
sg20
F1.9671123567059163
sg23
I26
sg26
I20
sg29
I28
sg32
F0.6793706293706293
sg35
I11
sg38
I2
ssg15
S'Hansen'
p73
sbsI9
(idataset.study
Study
p74
(dp75
g7
I9
sg8
(dp76
g10
I1990
sg17
I76
sg20
F-0.6795415285041666
sg23
I74
sg26
I73
sg29
I80
sg32
F0.5272121436504997
sg35
I3
sg38
I6
ssg15
S'De Vries'
p77
sbsI10
(idataset.study
Study
p78
(dp79
g7
I10
sg8
(dp80
g10
I1989
sg17
I93
sg20
F2.620519208616347
sg23
I92
sg26
I87
sg29
I92
sg32
F2.176085536085536
sg35
I6
sg38
I0
ssg15
S'Mauracher'
p81
sbsI11
(idataset.study
Study
p82
(dp83
g7
I11
sg8
(dp84
g10
I1990
sg17
I27
sg20
F0.4102843945441135
sg23
I26
sg26
I23
sg29
I29
sg32
F0.6652731326644369
sg35
I4
sg38
I3
ssg15
S'Nordstrom'
p85
sbsI12
(idataset.study
Study
p86
(dp87
g7
I12
sg8
(dp88
g10
I1993
sg17
I72
sg20
F-0.018018505502678472
sg23
I55
sg26
I56
sg29
I71
sg32
F0.16103896103896104
sg35
I16
sg38
I16
ssg15
S'Rozdzinski'
p89
sbsI13
(idataset.study
Study
p90
(dp91
g7
I13
sg8
(dp92
g10
I1990
sg17
I72
sg20
F-0.30448919076816194
sg23
I59
sg26
I64
sg29
I69
sg32
F0.25757415254237287
sg35
I8
sg38
I10
ssg15
S'Ter Braak'
p93
sbsI14
(idataset.study
Study
p94
(dp95
g7
I14
sg8
(dp96
g10
I1988
sg17
I19
sg20
F0.0
sg23
I19
sg26
I19
sg29
I19
sg32
F4.102564102564102
sg35
I0
sg38
I0
ssg15
S'Tulkens'
p97
sbsI15
(idataset.study
Study
p98
(dp99
g7
I15
sg8
(dp100
g10
I1991
sg17
I30
sg20
F1.6772605087728616
sg23
I30
sg26
I28
sg29
I30
sg32
F2.4678746045441473
sg35
I2
sg38
I0
ssg15
S'Van der Auwera'
p101
sbsI16
(idataset.study
Study
p102
(dp103
g7
I16
sg8
(dp104
g10
I1977
sg17
I25
sg20
F-1.751268107873318
sg23
I14
sg26
I22
sg29
I25
sg32
F0.5411255411255411
sg35
I3
sg38
I11
ssg15
S'Klastersky'
p105
sbsI17
(idataset.study
Study
p106
(dp107
g7
I17
sg8
(dp108
g10
I1993
sg17
I20
sg20
F-0.05001042057466165
sg23
I19
sg26
I20
sg29
I19
sg32
F4.100062539086929
sg35
I0
sg38
I0
ssg15
S'Vanhaeverbeek'
p109
sbsI18
(idataset.study
Study
p110
(dp111
g7
I18
sg8
(dp112
g10
I1989
sg17
I56
sg20
F1.151256022153532
sg23
I58
sg26
I55
sg29
I58
sg32
F2.701778701778702
sg35
I1
sg38
I0
ssg15
S'Hollender'
p113
sbssS'conf_level'
p114
I95
sS'dirty'
p115
I01
sS'variable_groups'
p116
(lp117
(iee_model
VariableGroup
p118
(dp119
S'name'
p120
S'Odds Ratio column group'
p121
sS'data_keys'
p122
(lp123
S'control_response'
p124
aS'control_noresponse'
p125
aS'experimental_response'
p126
aS'experimental_noresponse'
p127
asS'effect_keys'
p128
(lp129
I1
aI0
aI2
aI3
aI4
asS'metric'
p130
I2
sS'data_type'
p131
I1
sS'group_data'
p132
(dp133
I0
g20
sI1
g32
sI2
NsI3
NsI4
NsS'experimental_std_dev'
p134
NsS'experimental_sample_size'
p135
NsS'control_std_dev'
p136
NsS'control_sample_size'
p137
Nsg126
g35
sS'sample_size'
p138
Nsg127
g26
sS'experimental_mean'
p139
Nsg125
g23
sS'correlation'
p140
Nsg124
g38
sS'control_mean'
p141
NssbasS'last_analysis_selections'
p142
(dp143
S'metric'
p144
I2
sS'bootstrap_params'
p145
(dp146
sS'phylogen'
p147
I00
sS'included_covariates'
p148
c__builtin__
set
p149
((lp150
g23
atp151
Rp152
sS'data_type'
p153
I1
sS'funnel_params'
p154
NsS'included_studies'
p155
g149
((lp156
g86
ag98
ag110
ag90
ag62
ag66
ag42
ag94
ag70
ag46
ag102
ag74
ag50
ag106
ag78
ag54
ag82
ag58
ag5
atp157
Rp158
sS'data_locations'
p159
(dp160
I0
(dp161
sI1
(dp162
g125
I6
sg127
I7
sS'variance'
p163
I9
sS'effect_size'
p164
I8
sg124
I2
sg126
I4
ssI2
(dp165
ssS'cov_2_ref_values'
p166
(dp167
sS'failsafe_parameters'
p168
NsS'analysis_type'
p169
I0
sS'random_effects_method'
p170
S'DL'
p171
sS'ma_param_vals'
p172
NsS'covs_to_values'
p173
NsS'fixed_effects'
p174
I00
sS'conf_level'
p175
F95.0
sS'method'
p176
NsS'selected_cov'
p177
NsS'subgroup_variable'
p178
NssS'dataset'
p179
(idataset.ee_dataset
EEDataSet
p180
(dp181
S'variable_collection'
p182
ccopy_reg
_reconstructor
p183
(cdataset.variable_collection
VariableCollection
p184
c__builtin__
object
p185
Ntp186
Rp187
(dp188
S'item_class'
p189
cdataset.variable
Variable
p190
sS'ids_to_items'
p191
(dp192
I1
g10
sI2
g38
sI3
g29
sI4
g35
sI5
g17
sI6
g23
sI7
g26
sI8
g20
sI9
g32
ssbsS'study_collection'
p193
g183
(cdataset.study_collection
StudyCollection
p194
g185
Ntp195
Rp196
(dp197
g189
cdataset.study
Study
p198
sg191
(dp199
I0
g5
sI1
g42
sI2
g46
sI3
g50
sI4
g54
sI5
g58
sI6
g62
sI7
g66
sI8
g70
sI9
g74
sI10
g78
sI11
g82
sI12
g86
sI13
g90
sI14
g94
sI15
g98
sI16
g102
sI17
g106
sI18
g110
ssbsbsS'cols_2_vars'
p200
(dp201
I1
g10
sI2
g38
sI3
g29
sI4
g35
sI5
g17
sI6
g23
sI7
g26
sI8
g20
sI9
g32
ssS'label_column_name_label'
p202
S'study name'
p203
sb.