(iee_model
ModelState
p0
(dp1
S'label_column'
p2
I0
sS'rows_2_studies'
p3
(dp4
I0
(idataset.study
Study
p5
(dp6
S'study_id'
p7
I0
sS'variables'
p8
(dp9
(idataset.variable
Variable
p10
(dp11
S'var_id'
p12
I10
sS'sub_type'
p13
I1
sS'var_type'
p14
I1
sS'label'
p15
S'Var(d)'
p16
sbF0.0333705617355999
s(idataset.variable
Variable
p17
(dp18
g12
I3
sg13
Nsg14
I2
sg15
S'tx B N'
p19
sbI60
s(idataset.variable
Variable
p20
(dp21
g12
I0
sg13
Nsg14
I2
sg15
S'tx A N'
p22
sbI60
s(idataset.variable
Variable
p23
(dp24
g12
I1
sg13
Nsg14
I1
sg15
S'tx A mean'
p25
sbF94.0
s(idataset.variable
Variable
p26
(dp27
g12
I4
sg13
Nsg14
I1
sg15
S'tx B mean'
p28
sbF92.0
s(idataset.variable
Variable
p29
(dp30
g12
I8
sg13
Nsg14
I0
sg15
S'STATE'
p31
sbS'MA'
p32
s(idataset.variable
Variable
p33
(dp34
g12
I2
sg13
Nsg14
I1
sg15
S'tx A SD'
p35
sbF22.0
s(idataset.variable
Variable
p36
(dp37
g12
I9
sg13
I0
sg14
I1
sg15
S'd'
p38
sbF-0.09452415852033003
s(idataset.variable
Variable
p39
(dp40
g12
I5
sg13
Nsg14
I1
sg15
S'tx B SD'
p41
sbF20.0
ssg15
S'Carroll, 1997'
p42
sbsI1
(idataset.study
Study
p43
(dp44
g7
I1
sg8
(dp45
g10
F0.031065101063661126
sg17
I65
sg20
I65
sg23
F98.0
sg26
F92.0
sg29
S'MA'
p46
sg33
F21.0
sg36
F-0.2773558662655118
sg39
F22.0
ssg15
S'Grant, 1981'
p47
sbsI2
(idataset.study
Study
p48
(dp49
g7
I2
sg8
(dp50
g10
F0.05083971761755719
sg17
I40
sg20
I40
sg23
F98.0
sg26
F88.0
sg29
S'MA'
p51
sg33
F28.0
sg36
F-0.3665444295159192
sg39
F26.0
ssg15
S'Peck, 1987'
p52
sbsI3
(idataset.study
Study
p53
(dp54
g7
I3
sg8
(dp55
g10
F0.010551759451196694
sg17
I200
sg20
I200
sg23
F94.0
sg26
F82.0
sg29
S'RI'
p56
sg33
F19.0
sg36
F-0.6643850998911356
sg39
F17.0
ssg15
S'Donat, 2003'
p57
sbsI4
(idataset.study
Study
p58
(dp59
g7
I4
sg8
(dp60
g10
F0.04334466980873163
sg17
I45
sg20
I50
sg23
F98.0
sg26
F88.0
sg29
S'RI'
p61
sg33
F21.0
sg36
F-0.4618062812877151
sg39
F22.0
ssg15
S'Stewart, 1990'
p62
sbsI5
(idataset.study
Study
p63
(dp64
g7
I5
sg8
(dp65
g10
F0.02363025255552155
sg17
I85
sg20
I85
sg23
F96.0
sg26
F92.0
sg29
S'RI'
p66
sg33
F21.0
sg36
F-0.18516443739910407
sg39
F22.0
ssg15
S'Young, 1995'
p67
sbssS'conf_level'
p68
I95
sS'dirty'
p69
I01
sS'variable_groups'
p70
(lp71
(iee_model
VariableGroup
p72
(dp73
S'name'
p74
S"Hedges' d column group"
p75
sS'data_keys'
p76
(lp77
S'control_mean'
p78
aS'control_std_dev'
p79
aS'control_sample_size'
p80
aS'experimental_mean'
p81
aS'experimental_std_dev'
p82
aS'experimental_sample_size'
p83
asS'effect_keys'
p84
(lp85
I1
aI0
aI2
aI3
aI4
asS'metric'
p86
I0
sS'data_type'
p87
I0
sS'group_data'
p88
(dp89
I0
g36
sI1
g10
sI2
NsI3
NsI4
Nsg82
g39
sg83
g17
sg79
g33
sg80
g20
sS'experimental_response'
p90
NsS'num_events'
p91
NsS'sample_size'
p92
NsS'experimental_noresponse'
p93
Nsg81
g26
sS'control_noresponse'
p94
NsS'correlation'
p95
NsS'control_response'
p96
Nsg78
g23
ssbasS'last_analysis_selections'
p97
(dp98
S'metric'
p99
I0
sS'bootstrap_params'
p100
NsS'phylogen'
p101
I00
sS'included_covariates'
p102
NsS'data_type'
p103
I0
sS'funnel_params'
p104
(dp105
S'digits'
p106
I3
sS'steps'
p107
I5
sS'addtau2'
p108
I00
ssS'included_studies'
p109
c__builtin__
set
p110
((lp111
g43
ag48
ag53
ag58
ag63
ag5
atp112
Rp113
sS'data_locations'
p114
(dp115
I0
(dp116
g81
I5
sg82
I6
sg83
I4
sS'effect_size'
p117
I8
sg80
I1
sg79
I3
sS'variance'
p118
I9
sg78
I2
ssI1
(dp119
sI2
(dp120
ssS'cov_2_ref_values'
p121
NsS'method'
p122
S'continuous.random'
p123
sS'analysis_type'
p124
I0
sS'random_effects_method'
p125
S'REML'
p126
sS'ma_param_vals'
p127
(dp128
S'conf.level'
p129
F95.0
sS'digits'
p130
I3
sS'fp_col2_str'
p131
V[default]
p132
sS'fp_col3_str'
p133
VEv/Trt
p134
sS'fp_col4_str'
p135
VEv/Ctrl
p136
sS'fp_xticks'
p137
S'[default]'
p138
sS'fp_show_col4'
p139
I00
sS'fp_show_col3'
p140
I00
sS'fp_xlabel'
p141
V[default]
p142
sS'fp_show_col1'
p143
I01
sS'fp_show_col2'
p144
I01
sS'fp_outpath'
p145
V./r_tmp/forest.png
p146
sS'rm.method'
p147
S'DL'
p148
sS'fp_plot_ub'
p149
g138
sS'fp_col1_str'
p150
VStudies
p151
sS'measure'
p152
S'SMD'
p153
sS'fp_plot_lb'
p154
g138
sS'fp_show_summary_line'
p155
I01
ssS'knha'
p156
I00
sS'covs_to_values'
p157
NsS'fixed_effects'
p158
NsS'conf_level'
p159
NsS'failsafe_parameters'
p160
(dp161
g106
I4
sS'alpha'
p162
F0.05
sS'method'
p163
S'Rosenthal'
p164
ssS'selected_cov'
p165
NsS'subgroup_variable'
p166
NssS'dataset'
p167
(idataset.ee_dataset
EEDataSet
p168
(dp169
S'variable_collection'
p170
ccopy_reg
_reconstructor
p171
(cdataset.variable_collection
VariableCollection
p172
c__builtin__
object
p173
Ntp174
Rp175
(dp176
S'item_class'
p177
cdataset.variable
Variable
p178
sS'ids_to_items'
p179
(dp180
I0
g20
sI1
g23
sI2
g33
sI3
g17
sI4
g26
sI5
g39
sI8
g29
sI9
g36
sI10
g10
ssbsS'study_collection'
p181
g171
(cdataset.study_collection
StudyCollection
p182
g173
Ntp183
Rp184
(dp185
g177
cdataset.study
Study
p186
sg179
(dp187
I0
g5
sI1
g43
sI2
g48
sI3
g53
sI4
g58
sI5
g63
ssbsbsS'cols_2_vars'
p188
(dp189
I1
g20
sI2
g23
sI3
g33
sI4
g17
sI5
g26
sI6
g39
sI7
g29
sI8
g36
sI9
g10
ssS'label_column_name_label'
p190
S'study name'
p191
sb.