(iee_model
ModelState
p0
(dp1
S'label_column'
p2
I0
sS'rows_2_studies'
p3
(dp4
I0
(idataset.study
Study
p5
(dp6
S'study_id'
p7
I0
sS'variables'
p8
(dp9
(idataset.variable
Variable
p10
(dp11
S'var_id'
p12
I3
sS'sub_type'
p13
NsS'var_type'
p14
I2
sS'label'
p15
S'tx B N'
p16
sbI60
s(idataset.variable
Variable
p17
(dp18
g12
I0
sg13
Nsg14
I2
sg15
S'tx A N'
p19
sbI60
s(idataset.variable
Variable
p20
(dp21
g12
I4
sg13
Nsg14
I1
sg15
S'tx B mean'
p22
sbF92.0
s(idataset.variable
Variable
p23
(dp24
g12
I8
sg13
Nsg14
I0
sg15
S'J'
p25
sbS'MA'
p26
s(idataset.variable
Variable
p27
(dp28
g12
I2
sg13
Nsg14
I1
sg15
S'tx A SD'
p29
sbF22.0
s(idataset.variable
Variable
p30
(dp31
g12
I9
sg13
I0
sg14
I1
sg15
S'd'
p32
sbF-0.09452415852033003
s(idataset.variable
Variable
p33
(dp34
g12
I5
sg13
Nsg14
I1
sg15
S'tx B SD'
p35
sbF20.0
s(idataset.variable
Variable
p36
(dp37
g12
I10
sg13
I1
sg14
I1
sg15
S'Var(d)'
p38
sbF0.0333705617355999
s(idataset.variable
Variable
p39
(dp40
g12
I1
sg13
Nsg14
I1
sg15
S'tx A mean'
p41
sbF94.0
ssg15
S'Carroll, 1997'
p42
sbsI1
(idataset.study
Study
p43
(dp44
g7
I1
sg8
(dp45
g10
I65
sg17
I65
sg20
F92.0
sg23
S'MA'
p46
sg27
F21.0
sg30
F-0.2773558662655118
sg33
F22.0
sg36
F0.031065101063661126
sg39
F98.0
ssg15
S'Grant, 1981'
p47
sbsI2
(idataset.study
Study
p48
(dp49
g7
I2
sg8
(dp50
g10
I40
sg17
I40
sg20
F88.0
sg23
S'MA'
p51
sg27
F28.0
sg30
F-0.3665444295159192
sg33
F26.0
sg36
F0.05083971761755719
sg39
F98.0
ssg15
S'Peck, 1987'
p52
sbsI3
(idataset.study
Study
p53
(dp54
g7
I3
sg8
(dp55
g10
I200
sg17
I200
sg20
F82.0
sg23
S'RI'
p56
sg27
F19.0
sg30
F-0.6643850998911356
sg33
F17.0
sg36
F0.010551759451196694
sg39
F94.0
ssg15
S'Donat, 2003'
p57
sbsI4
(idataset.study
Study
p58
(dp59
g7
I4
sg8
(dp60
g10
I45
sg17
I50
sg20
F88.0
sg23
S'RI'
p61
sg27
F21.0
sg30
F-0.4618062812877151
sg33
F22.0
sg36
F0.04334466980873163
sg39
F98.0
ssg15
S'Stewart, 1990'
p62
sbsI5
(idataset.study
Study
p63
(dp64
g7
I5
sg8
(dp65
g10
I85
sg17
I85
sg20
F92.0
sg23
S'RI'
p66
sg27
F21.0
sg30
F-0.18516443739910407
sg33
F22.0
sg36
F0.02363025255552155
sg39
F96.0
ssg15
S'Young, 1995'
p67
sbssS'conf_level'
p68
I95
sS'dirty'
p69
I01
sS'variable_groups'
p70
(lp71
(iee_model
VariableGroup
p72
(dp73
S'name'
p74
S"Hedges' d column group"
p75
sS'data_keys'
p76
(lp77
S'control_mean'
p78
aS'control_std_dev'
p79
aS'control_sample_size'
p80
aS'experimental_mean'
p81
aS'experimental_std_dev'
p82
aS'experimental_sample_size'
p83
asS'effect_keys'
p84
(lp85
I1
aI0
aI2
aI3
aI4
asS'metric'
p86
I0
sS'data_type'
p87
I0
sS'group_data'
p88
(dp89
I0
g30
sI1
g36
sI2
NsI3
NsI4
Nsg82
g33
sg83
g10
sg79
g27
sg80
g17
sS'experimental_response'
p90
NsS'num_events'
p91
NsS'sample_size'
p92
NsS'experimental_noresponse'
p93
Nsg81
g20
sS'control_noresponse'
p94
NsS'correlation'
p95
NsS'control_response'
p96
Nsg78
g39
ssbasS'last_analysis_selections'
p97
(dp98
S'data_locations'
p99
(dp100
I0
(dp101
g82
I6
sg80
I1
sg78
I2
sg81
I5
sg83
I4
sS'effect_size'
p102
I8
sS'variance'
p103
I9
sg79
I3
ssI1
(dp104
sI2
(dp105
ssS'phylogen'
p106
I00
sS'included_covariates'
p107
NsS'data_type'
p108
I0
sS'selected_cov'
p109
NsS'funnel_params'
p110
(dp111
S'digits'
p112
I3
sS'steps'
p113
I5
sS'addtau2'
p114
I00
ssS'random_effects_method'
p115
S'REML'
p116
sS'included_studies'
p117
c__builtin__
set
p118
((lp119
g53
ag58
ag63
ag5
ag43
ag48
atp120
Rp121
sS'bootstrap_params'
p122
NsS'cov_2_ref_values'
p123
NsS'failsafe_parameters'
p124
(dp125
g112
I4
sS'alpha'
p126
F0.05
sS'method'
p127
S'Rosenthal'
p128
ssS'covs_to_values'
p129
NsS'conf_level'
p130
NsS'ma_param_vals'
p131
(dp132
S'conf.level'
p133
F95.0
sS'digits'
p134
I3
sS'fp_col2_str'
p135
V[default]
p136
sS'fp_show_col4'
p137
I00
sS'fp_xlabel'
p138
V[default]
p139
sS'fp_col4_str'
p140
VEv/Ctrl
p141
sS'fp_xticks'
p142
S'[default]'
p143
sS'fp_col3_str'
p144
VEv/Trt
p145
sS'fp_show_col3'
p146
I00
sS'fp_show_col2'
p147
I01
sS'fp_show_col1'
p148
I01
sS'fp_plot_lb'
p149
g143
sS'fp_outpath'
p150
V./r_tmp/forest.png
p151
sS'rm.method'
p152
S'DL'
p153
sS'fp_plot_ub'
p154
g143
sS'fp_col1_str'
p155
VStudies
p156
sS'measure'
p157
S'SMD'
p158
sS'fp_show_summary_line'
p159
I01
ssS'analysis_type'
p160
I0
sS'fixed_effects'
p161
NsS'method'
p162
S'continuous.random'
p163
sS'knha'
p164
I00
sS'metric'
p165
I0
sS'subgroup_variable'
p166
NssS'dataset'
p167
(idataset.ee_dataset
EEDataSet
p168
(dp169
S'variable_collection'
p170
ccopy_reg
_reconstructor
p171
(cdataset.variable_collection
VariableCollection
p172
c__builtin__
object
p173
Ntp174
Rp175
(dp176
S'item_class'
p177
cdataset.variable
Variable
p178
sS'ids_to_items'
p179
(dp180
I0
g17
sI1
g39
sI2
g27
sI3
g10
sI4
g20
sI5
g33
sI8
g23
sI9
g30
sI10
g36
ssbsS'study_collection'
p181
g171
(cdataset.study_collection
StudyCollection
p182
g173
Ntp183
Rp184
(dp185
g177
cdataset.study
Study
p186
sg179
(dp187
I0
g5
sI1
g43
sI2
g48
sI3
g53
sI4
g58
sI5
g63
ssbsbsS'cols_2_vars'
p188
(dp189
I1
g17
sI2
g39
sI3
g27
sI4
g10
sI5
g20
sI6
g33
sI7
g23
sI8
g30
sI9
g36
ssS'label_column_name_label'
p190
S'study name'
p191
sb.