(iee_model
ModelState
p0
(dp1
S'label_column'
p2
I0
sS'rows_2_studies'
p3
(dp4
I0
(idataset.study
Study
p5
(dp6
S'study_id'
p7
I0
sS'variables'
p8
(dp9
(idataset.variable
Variable
p10
(dp11
S'var_id'
p12
I4
sS'sub_type'
p13
NsS'var_type'
p14
I1
sS'label'
p15
S'tx B mean'
p16
sbF92.0
s(idataset.variable
Variable
p17
(dp18
g12
I2
sg13
Nsg14
I1
sg15
S'tx A SD'
p19
sbF22.0
s(idataset.variable
Variable
p20
(dp21
g12
I5
sg13
Nsg14
I1
sg15
S'tx B SD'
p22
sbF20.0
s(idataset.variable
Variable
p23
(dp24
g12
I1
sg13
Nsg14
I1
sg15
S'tx A mean'
p25
sbF94.0
s(idataset.variable
Variable
p26
(dp27
g12
I3
sg13
Nsg14
I2
sg15
S'tx B N'
p28
sbI60
s(idataset.variable
Variable
p29
(dp30
g12
I7
sg13
I1
sg14
I1
sg15
S'Var(d)'
p31
sbF0.0333705617355999
s(idataset.variable
Variable
p32
(dp33
g12
I0
sg13
Nsg14
I2
sg15
S'tx A N'
p34
sbI60
s(idataset.variable
Variable
p35
(dp36
g12
I6
sg13
I0
sg14
I1
sg15
S'd'
p37
sbF0.09452415852033004
s(idataset.variable
Variable
p38
(dp39
g12
I8
sg13
Nsg14
I0
sg15
S'J'
p40
sbS'MA'
p41
ssg15
S'Carroll, 1997'
p42
sbsI1
(idataset.study
Study
p43
(dp44
g7
I1
sg8
(dp45
g10
F92.0
sg17
F21.0
sg20
F22.0
sg23
F98.0
sg26
I65
sg29
F0.031065101063661126
sg32
I65
sg35
F0.2773558662655118
sg38
S'MA'
p46
ssg15
S'Grant, 1981'
p47
sbsI2
(idataset.study
Study
p48
(dp49
g7
I2
sg8
(dp50
g10
F88.0
sg17
F28.0
sg20
F26.0
sg23
F98.0
sg26
I40
sg29
F0.05083971761755719
sg32
I40
sg35
F0.3665444295159192
sg38
S'MA'
p51
ssg15
S'Peck, 1987'
p52
sbsI3
(idataset.study
Study
p53
(dp54
g7
I3
sg8
(dp55
g10
F82.0
sg17
F19.0
sg20
F17.0
sg23
F94.0
sg26
I200
sg29
F0.010551759451196694
sg32
I200
sg35
F0.6643850998911356
sg38
S'RI'
p56
ssg15
S'Donat, 2003'
p57
sbsI4
(idataset.study
Study
p58
(dp59
g7
I4
sg8
(dp60
g10
F88.0
sg17
F21.0
sg20
F22.0
sg23
F98.0
sg26
I45
sg29
F0.043344669808731626
sg32
I50
sg35
F0.4618062812877151
sg38
S'RI'
p61
ssg15
S'Stewart, 1990'
p62
sbsI5
(idataset.study
Study
p63
(dp64
g7
I5
sg8
(dp65
g10
F92.0
sg17
F21.0
sg20
F22.0
sg23
F96.0
sg26
I85
sg29
F0.02363025255552155
sg32
I85
sg35
F0.18516443739910404
sg38
S'RI'
p66
ssg15
S'Young, 1995'
p67
sbsI6
(idataset.study
Study
p68
(dp69
g7
I6
sg8
(dp70
sg15
S''
p71
sbssS'conf_level'
p72
I95
sS'dirty'
p73
I00
sS'variable_groups'
p74
(lp75
sS'last_analysis_selections'
p76
(dp77
S'data_locations'
p78
(dp79
I0
(dp80
sI1
(dp81
sI2
(dp82
ssS'phylogen'
p83
I00
sS'data_type'
p84
NsS'included_studies'
p85
NsS'bootstrap_params'
p86
NsS'cov_2_ref_values'
p87
Nsg72
NsS'knha'
p88
I00
sS'analysis_type'
p89
I0
sS'failsafe_parameters'
p90
NsS'metric'
p91
NsS'subgroup_variable'
p92
NsS'fixed_effects'
p93
NsS'included_covariates'
p94
NsS'funnel_params'
p95
NsS'random_effects_method'
p96
S'REML'
p97
sS'ma_param_vals'
p98
NsS'covs_to_values'
p99
NsS'method'
p100
NsS'selected_cov'
p101
NssS'dataset'
p102
(idataset.ee_dataset
EEDataSet
p103
(dp104
S'variable_collection'
p105
ccopy_reg
_reconstructor
p106
(cdataset.variable_collection
VariableCollection
p107
c__builtin__
object
p108
Ntp109
Rp110
(dp111
S'item_class'
p112
cdataset.variable
Variable
p113
sS'ids_to_items'
p114
(dp115
I0
g32
sI1
g23
sI2
g17
sI3
g26
sI4
g10
sI5
g20
sI6
g35
sI7
g29
sI8
g38
ssbsS'study_collection'
p116
g106
(cdataset.study_collection
StudyCollection
p117
g108
Ntp118
Rp119
(dp120
g112
cdataset.study
Study
p121
sg114
(dp122
I0
g5
sI1
g43
sI2
g48
sI3
g53
sI4
g58
sI5
g63
sI6
g68
ssbsbsS'cols_2_vars'
p123
(dp124
I1
g32
sI2
g23
sI3
g17
sI4
g26
sI5
g10
sI6
g20
sI7
g35
sI8
g29
sI9
g38
ssS'label_column_name_label'
p125
S'study name'
p126
sb.