(iee_model
ModelState
p0
(dp1
S'label_column'
p2
I0
sS'rows_2_studies'
p3
(dp4
I0
(idataset.study
Study
p5
(dp6
S'study_id'
p7
I0
sS'variables'
p8
(dp9
(idataset.variable
Variable
p10
(dp11
S'var_id'
p12
I3
sS'sub_type'
p13
I0
sS'var_type'
p14
I1
sS'label'
p15
S"Hedge's d"
p16
sbF0.539
s(idataset.variable
Variable
p17
(dp18
g12
I1
sg13
Nsg14
I0
sg15
S'Mate'
p19
sbS'M'
p20
s(idataset.variable
Variable
p21
(dp22
g12
I4
sg13
I1
sg14
I1
sg15
S'vard'
p23
sbF0.044
s(idataset.variable
Variable
p24
(dp25
g12
I5
sg13
Nsg14
I1
sg15
S'Ntot'
p26
sbF94.0
s(idataset.variable
Variable
p27
(dp28
g12
I2
sg13
Nsg14
I0
sg15
S'Subord'
p29
sbS'H'
p30
s(idataset.variable
Variable
p31
(dp32
g12
I6
sg13
Nsg14
I0
sg15
S'Measure'
p33
sbS'Fec'
p34
ssg15
S'Acrolepia assectella'
p35
sbsI1
(idataset.study
Study
p36
(dp37
g7
I1
sg8
(dp38
g10
F0.376
sg17
S'M'
p39
sg21
F0.021
sg24
F191.0
sg27
S'H'
p40
sg31
S'Fert'
p41
ssg15
S'Agrotis segetum'
p42
sbsI2
(idataset.study
Study
p43
(dp44
g7
I2
sg8
(dp45
g10
F0.469
sg17
S'P'
p46
sg21
F0.082
sg24
F72.0
sg27
S'H'
p47
sg31
S'Fec'
p48
ssg15
S'Busseola fusca'
p49
sbsI3
(idataset.study
Study
p50
(dp51
g7
I3
sg8
(dp52
g10
F1.013
sg17
S'P'
p53
sg21
F0.205
sg24
F22.0
sg27
S'R'
p54
sg31
S'Fec'
p55
ssg15
S'Colias eurytheme'
p56
sbsI4
(idataset.study
Study
p57
(dp58
g7
I4
sg8
(dp59
g10
F-0.041
sg17
S'M'
p60
sg21
F0.052
sg24
F107.0
sg27
S'H'
p61
sg31
S'Fec'
p62
ssg15
S'Chilo partellus'
p63
sbsI5
(idataset.study
Study
p64
(dp65
g7
I5
sg8
(dp66
g10
F0.137
sg17
S'M'
p67
sg21
F0.048
sg24
F86.0
sg27
S'H'
p68
sg31
S'Fec'
p69
ssg15
S'Choristoneura fumiferana'
p70
sbsI6
(idataset.study
Study
p71
(dp72
g7
I6
sg8
(dp73
g10
F1.028
sg17
S'P'
p74
sg21
F0.037
sg24
F135.0
sg27
S'H'
p75
sg31
S'Fec'
p76
ssg15
S'Choristoneura rosaceana'
p77
sbsI7
(idataset.study
Study
p78
(dp79
g7
I7
sg8
(dp80
g10
F0.458
sg17
S'M'
p81
sg21
F0.133
sg24
F31.0
sg27
S'H'
p82
sg31
S'Fert'
p83
ssg15
S'Diatraea considerata'
p84
sbsI8
(idataset.study
Study
p85
(dp86
g7
I8
sg8
(dp87
g10
F-0.118
sg17
S'M'
p88
sg21
F0.09
sg24
F59.0
sg27
S'H'
p89
sg31
S'Fert'
p90
ssg15
S'Epiphyas postvittana'
p91
sbsI9
(idataset.study
Study
p92
(dp93
g7
I9
sg8
(dp94
g10
F0.111
sg17
S'M'
p95
sg21
F0.2
sg24
F20.0
sg27
S'R'
p96
sg31
S'Fec'
p97
ssg15
S'Eurema hecabe'
p98
sbsI10
(idataset.study
Study
p99
(dp100
g7
I10
sg8
(dp101
g10
F0.304
sg17
S'P'
p102
sg21
F0.128
sg24
F33.0
sg27
S'H'
p103
sg31
S'Fec'
p104
ssg15
S'Helicoverpa armigera'
p105
sbsI11
(idataset.study
Study
p106
(dp107
g7
I11
sg8
(dp108
g10
F0.366
sg17
S'M'
p109
sg21
F0.071
sg24
F57.0
sg27
S'R'
p110
sg31
S'Fec'
p111
ssg15
S'Jalmenus evagoras'
p112
sbsI12
(idataset.study
Study
p113
(dp114
g7
I12
sg8
(dp115
g10
F0.066
sg17
S'M'
p116
sg21
F0.046
sg24
F114.0
sg27
S'H'
p117
sg31
S'Fec'
p118
ssg15
S'Lobesia botrana'
p119
sbsI13
(idataset.study
Study
p120
(dp121
g7
I13
sg8
(dp122
g10
F0.359
sg17
S'M'
p123
sg21
F0.017
sg24
F246.0
sg27
S'H'
p124
sg31
S'Fec'
p125
ssg15
S'Ostrinia nubilalis'
p126
sbsI14
(idataset.study
Study
p127
(dp128
g7
I14
sg8
(dp129
g10
F0.232
sg17
S'P'
p130
sg21
F0.044
sg24
F95.0
sg27
S'R'
p131
sg31
S'Fec'
p132
ssg15
S'Papilio glaucus'
p133
sbsI15
(idataset.study
Study
p134
(dp135
g7
I15
sg8
(dp136
g10
F0.251
sg17
S'M'
p137
sg21
F0.155
sg24
F26.0
sg27
S'R'
p138
sg31
S'Fec'
p139
ssg15
S'Papilio machaon'
p140
sbsI16
(idataset.study
Study
p141
(dp142
g7
I16
sg8
(dp143
g10
F0.809
sg17
S'P'
p144
sg21
F0.024
sg24
F184.0
sg27
S'H'
p145
sg31
S'Fec'
p146
ssg15
S'Pectinophora gossypiella'
p147
sbsI17
(idataset.study
Study
p148
(dp149
g7
I17
sg8
(dp150
g10
F1.169
sg17
S'P'
p151
sg21
F0.255
sg24
F18.0
sg27
S'R'
p152
sg31
S'Both'
p153
ssg15
S'Pieris napi'
p154
sbsI18
(idataset.study
Study
p155
(dp156
g7
I18
sg8
(dp157
g10
F0.114
sg17
S'P'
p158
sg21
F0.046
sg24
F87.0
sg27
S'H'
p159
sg31
S'Both'
p160
ssg15
S'Plodia interpunctella'
p161
sbsI19
(idataset.study
Study
p162
(dp163
g7
I19
sg8
(dp164
g10
F-0.152
sg17
S'P'
p165
sg21
F0.048
sg24
F117.0
sg27
S'H'
p166
sg31
S'Fec'
p167
ssg15
S'Pseudaletia unipuncta'
p168
sbsI20
(idataset.study
Study
p169
(dp170
g7
I20
sg8
(dp171
g10
F0.507
sg17
S'P'
p172
sg21
F0.022
sg24
F192.0
sg27
S'H'
p173
sg31
S'Fec'
p174
ssg15
S'Sitotroga cerealella'
p175
sbsI21
(idataset.study
Study
p176
(dp177
g7
I21
sg8
(dp178
g10
F0.1
sg17
S'P'
p179
sg21
F0.107
sg24
F42.0
sg27
S'H'
p180
sg31
S'Fec'
p181
ssg15
S'Spodoptera littoralis'
p182
sbsI22
(idataset.study
Study
p183
(dp184
g7
I22
sg8
(dp185
g10
F0.107
sg17
S'M'
p186
sg21
F0.078
sg24
F164.0
sg27
S'R'
p187
sg31
S'Fec'
p188
ssg15
S'Thymelicus lineola'
p189
sbsI23
(idataset.study
Study
p190
(dp191
g7
I23
sg8
(dp192
g10
F0.263
sg17
S'P'
p193
sg21
F0.075
sg24
F61.0
sg27
S'H'
p194
sg31
S'Fec'
p195
ssg15
S'Trichoplusia ni'
p196
sbsI24
(idataset.study
Study
p197
(dp198
g7
I24
sg8
(dp199
g10
F0.016
sg17
S'M'
p200
sg21
F0.067
sg24
F60.0
sg27
S'H'
p201
sg31
S'Fert'
p202
ssg15
S'Zeiraphera canadiensis'
p203
sbssS'conf_level'
p204
I95
sS'dirty'
p205
I00
sS'variable_groups'
p206
(lp207
sS'last_analysis_selections'
p208
(dp209
S'metric'
p210
I6
sS'data_locations'
p211
(dp212
I0
(dp213
S'variance'
p214
I4
sS'effect_size'
p215
I3
ssI1
(dp216
sI3
(dp217
ssS'fixed_effects'
p218
NsS'included_covariates'
p219
NsS'data_type'
p220
I0
sS'funnel_params'
p221
NsS'included_studies'
p222
c__builtin__
set
p223
((lp224
g169
ag176
ag183
ag5
ag190
ag197
ag36
ag43
ag50
ag57
ag64
ag71
ag78
ag85
ag92
ag99
ag106
ag113
ag120
ag127
ag134
ag141
ag148
ag155
ag162
atp225
Rp226
sS'bootstrap_params'
p227
NsS'cov_2_ref_values'
p228
NsS'failsafe_parameters'
p229
NsS'covs_to_values'
p230
NsS'conf_level'
p231
NsS'phylogen'
p232
I00
sS'knha'
p233
I00
sS'analysis_type'
p234
I0
sS'random_effects_method'
p235
S'REML'
p236
sS'ma_param_vals'
p237
(dp238
S'conf.level'
p239
F95.0
sS'digits'
p240
I3
sS'fp_col2_str'
p241
V[default]
p242
sS'fp_show_col4'
p243
I00
sS'fp_xlabel'
p244
V[default]
p245
sS'fp_col4_str'
p246
VEv/Ctrl
p247
sS'fp_xticks'
p248
S'[default]'
p249
sS'fp_col3_str'
p250
VEv/Trt
p251
sS'fp_show_col3'
p252
I00
sS'fp_show_col2'
p253
I01
sS'fp_show_col1'
p254
I01
sS'fp_plot_lb'
p255
g249
sS'fp_outpath'
p256
V./r_tmp/forest.png
p257
sS'rm.method'
p258
S'DL'
p259
sS'fp_plot_ub'
p260
g249
sS'fp_col1_str'
p261
VStudies
p262
sS'measure'
p263
S'GEN'
p264
sS'fp_show_summary_line'
p265
I01
ssS'method'
p266
S'continuous.random'
p267
sS'selected_cov'
p268
NsS'subgroup_variable'
p269
NssS'dataset'
p270
(idataset.ee_dataset
EEDataSet
p271
(dp272
S'variable_collection'
p273
ccopy_reg
_reconstructor
p274
(cdataset.variable_collection
VariableCollection
p275
c__builtin__
object
p276
Ntp277
Rp278
(dp279
S'item_class'
p280
cdataset.variable
Variable
p281
sS'ids_to_items'
p282
(dp283
I1
g17
sI2
g27
sI3
g10
sI4
g21
sI5
g24
sI6
g31
ssbsS'study_collection'
p284
g274
(cdataset.study_collection
StudyCollection
p285
g276
Ntp286
Rp287
(dp288
g280
cdataset.study
Study
p289
sg282
(dp290
I0
g5
sI1
g36
sI2
g43
sI3
g50
sI4
g57
sI5
g64
sI6
g71
sI7
g78
sI8
g85
sI9
g92
sI10
g99
sI11
g106
sI12
g113
sI13
g120
sI14
g127
sI15
g134
sI16
g141
sI17
g148
sI18
g155
sI19
g162
sI20
g169
sI21
g176
sI22
g183
sI23
g190
sI24
g197
ssbsbsS'cols_2_vars'
p291
(dp292
I1
g17
sI2
g27
sI3
g10
sI4
g21
sI5
g24
sI6
g31
ssS'label_column_name_label'
p293
S'Species'
p294
sb.