(iee_model
ModelState
p0
(dp1
S'label_column'
p2
I0
sS'rows_2_studies'
p3
(dp4
I0
(idataset.study
Study
p5
(dp6
S'study_id'
p7
I0
sS'variables'
p8
(dp9
(idataset.variable
Variable
p10
(dp11
S'var_id'
p12
I12
sS'sub_type'
p13
I1
sS'var_type'
p14
I1
sS'label'
p15
S'Var(ln OR)'
p16
sbF0.672511660363535
s(idataset.variable
Variable
p17
(dp18
g12
I11
sg13
I0
sg14
I1
sg15
S'ln OR'
p19
sbF1.2971898860370696
s(idataset.variable
Variable
p20
(dp21
g12
I4
sg13
Nsg14
I2
sg15
S'tx B #evts'
p22
sbI2
s(idataset.variable
Variable
p23
(dp24
g12
I1
sg13
Nsg14
I0
sg15
S'year'
p25
sbS'1988'
p26
s(idataset.variable
Variable
p27
(dp28
g12
I8
sg13
I4
sg14
I1
sg15
S'upper'
p29
sbF18.256
s(idataset.variable
Variable
p30
(dp31
g12
I2
sg13
Nsg14
I2
sg15
S'tx A #evts'
p32
sbI7
s(idataset.variable
Variable
p33
(dp34
g12
I5
sg13
Nsg14
I2
sg15
S'tx B #total'
p35
sbI71
s(idataset.variable
Variable
p36
(dp37
g12
I3
sg13
Nsg14
I2
sg15
S'tx A #total'
p38
sbI73
s(idataset.variable
Variable
p39
(dp40
g12
I10
sg13
Nsg14
I0
sg15
S'treatment group'
p41
sbS'2'
p42
s(idataset.variable
Variable
p43
(dp44
g12
I6
sg13
I2
sg14
I1
sg15
S'OR'
p45
sbF3.659
s(idataset.variable
Variable
p46
(dp47
g12
I7
sg13
I3
sg14
I1
sg15
S'lower'
p48
sbF0.733
s(idataset.variable
Variable
p49
(dp50
g12
I9
sg13
Nsg14
I1
sg15
S'time to treatment'
p51
sbF3.2
ssg15
S'NHF Austra'
p52
sbsI1
(idataset.study
Study
p53
(dp54
g7
I1
sg8
(dp55
g10
F0.8202976244732987
sg17
F0.9707789171582248
sg20
I2
sg23
S'1985'
p56
sg27
F15.579
sg30
I4
sg33
I35
sg36
I29
sg39
g42
sg43
F2.64
sg46
F0.447
sg49
F3.5
ssg15
S'Raizner'
p57
sbsI2
(idataset.study
Study
p58
(dp59
g7
I2
sg8
(dp60
g10
F0.28187900436416674
sg17
F0.868360198116605
sg20
I6
sg23
S'1984'
p61
sg27
F6.746
sg30
I13
sg33
I61
sg36
I63
sg39
g42
sg43
F2.383
sg46
F0.842
sg49
F4.1
ssg15
S'Rentrop'
p62
sbsI3
(idataset.study
Study
p63
(dp64
g7
I3
sg8
(dp65
g10
F0.7885250460593682
sg17
F0.8087055211942177
sg20
I2
sg23
S'1973'
p66
sg27
F12.796
sg30
I4
sg33
I57
sg36
I53
sg39
S'4'
p67
sg43
F2.245
sg46
F0.394
sg49
F20.5
ssg15
S'Bett-c'
p68
sbsI4
(idataset.study
Study
p69
(dp70
g7
I4
sg8
(dp71
g10
F0.8679193158251236
sg17
F0.5754891370917129
sg20
I2
sg23
S'1984'
p72
sg27
F11.039
sg30
I4
sg33
I18
sg36
I22
sg39
g42
sg43
F1.778
sg46
F0.286
ssg15
S'Leiboff'
p73
sbsI5
(idataset.study
Study
p74
(dp75
g7
I5
sg8
(dp76
g10
F0.7996464362258033
sg17
F0.5199835615507563
sg20
I2
sg23
S'1987'
p77
sg27
F9.705
sg30
I4
sg33
I39
sg36
I48
sg39
S'1'
p78
sg43
F1.682
sg46
F0.291
sg49
F2.5
ssg15
S'Bossaert'
p79
sbsI6
(idataset.study
Study
p80
(dp81
g7
I6
sg8
(dp82
g10
F0.35526316538877795
sg17
F0.47000362924573563
sg20
I5
sg23
S'1971'
p83
sg27
F5.146
sg30
I8
sg33
I71
sg36
I74
sg39
g67
sg43
F1.6
sg46
F0.497
sg49
F22.0
ssg15
S'Heikinheim-b'
p84
sbsI7
(idataset.study
Study
p85
(dp86
g7
I7
sg8
(dp87
g10
F0.14708333745095678
sg17
F0.37843643572024505
sg20
I15
sg23
S'1969'
p88
sg27
F3.096
sg30
I20
sg33
I84
sg36
I83
sg39
g67
sg43
F1.46
sg46
F0.689
sg49
F21.0
ssg15
S'Amery'
p89
sbsI8
(idataset.study
Study
p90
(dp91
g7
I8
sg8
(dp92
g10
F0.054063325971282834
sg17
F0.17395330712343798
sg20
I41
sg23
S'1986'
p93
sg27
F1.877
sg30
I46
sg33
I302
sg36
I292
sg39
g67
sg43
F1.19
sg46
F0.755
sg49
F10.5
ssg15
S'GISSI-e'
p94
sbsI9
(idataset.study
Study
p95
(dp96
g7
I9
sg8
(dp97
g10
F0.17050725956563392
sg17
F0.09893994785490365
sg20
I12
sg23
S'1971'
p98
sg27
F2.48
sg30
I14
sg33
I136
sg36
I145
sg39
S'3'
p99
sg43
F1.104
sg46
F0.492
sg49
F9.5
ssg15
S'Heikinheim-a'
p100
sbsI10
(idataset.study
Study
p101
(dp102
g7
I10
sg8
(dp103
g10
F0.14852816245117625
sg17
F0.07232066157962608
sg20
I16
sg23
S'1971'
p104
sg27
F2.288
sg30
I18
sg33
I80
sg36
I85
sg39
g99
sg43
F1.075
sg46
F0.505
sg49
F9.0
ssg15
S'EWP-e'
p105
sbsI11
(idataset.study
Study
p106
(dp107
g7
I11
sg8
(dp108
g10
F0.3039973768460597
sg17
F0.06485097231961627
sg20
I7
sg23
S'1988'
p109
sg27
F3.144
sg30
I7
sg33
I119
sg36
I112
sg39
g42
sg43
F1.067
sg46
F0.362
sg49
F3.1
ssg15
S'Maublant'
p110
sbsI12
(idataset.study
Study
p111
(dp112
g7
I12
sg8
(dp113
g10
F0.04398953290292105
sg17
F0.006975613736425138
sg20
I55
sg23
S'1976'
p114
sg27
F1.519
sg30
I57
sg33
I293
sg36
I302
sg39
g99
sg43
F1.007
sg46
F0.667
sg49
F7.0
ssg15
S'Aber'
p115
sbsI13
(idataset.study
Study
p116
(dp117
g7
I13
sg8
(dp118
g10
F0.5293404318224212
sg17
F-0.04395188752918283
sg20
I4
sg23
S'1988'
p119
sg27
F3.983
sg30
I4
sg33
I71
sg36
I74
sg39
g78
sg43
F0.957
sg46
F0.23
sg49
F1.9
ssg15
S'TICO'
p120
sbsI14
(idataset.study
Study
p121
(dp122
g7
I14
sg8
(dp123
g10
F0.20754754830338226
sg17
F-0.10536051565782628
sg20
I10
sg23
S'1971'
p124
sg27
F2.198
sg30
I12
sg33
I82
sg36
I108
sg39
g78
sg43
F0.9
sg46
F0.368
sg49
F2.0
ssg15
S'EWP-d'
p125
sbsI15
(idataset.study
Study
p126
(dp127
g7
I15
sg8
(dp128
g10
F0.2625046364156236
sg17
F-0.10647224451051676
sg20
I8
sg23
S'1988'
p129
sg27
F2.454
sg30
I8
sg33
I159
sg36
I176
sg39
g42
sg43
F0.899
sg46
F0.329
sg49
F4.0
ssg15
S'ECSG-2-e'
p130
sbsI16
(idataset.study
Study
p131
(dp132
g7
I16
sg8
(dp133
g10
F0.025610339409840952
sg17
F-0.1346749033266016
sg20
I93
sg23
S'1986'
p134
sg27
F1.196
sg30
I87
sg33
I659
sg36
I693
sg39
g99
sg43
F0.874
sg46
F0.638
sg49
F7.5
ssg15
S'GISSI-d'
p135
sbsI17
(idataset.study
Study
p136
(dp137
g7
I17
sg8
(dp138
g10
F0.03679930960203768
sg17
F-0.13696585507315742
sg20
I63
sg23
S'1986'
p139
sg27
F1.27
sg30
I54
sg33
I882
sg36
I859
sg39
g78
sg43
F0.872
sg46
F0.599
sg49
F3.0
ssg15
S'ISAM'
p140
sbsI18
(idataset.study
Study
p141
(dp142
g7
I18
sg8
(dp143
g10
F0.012743534934751017
sg17
F-0.164874643190234
sg20
I190
sg23
S'1988'
p144
sg27
F1.058
sg30
I164
sg33
I1622
sg36
I1621
sg39
g42
sg43
F0.848
sg46
F0.68
sg49
F5.0
ssg15
S'ISIS-2-g'
p145
sbsI19
(idataset.study
Study
p146
(dp147
g7
I19
sg8
(dp148
g10
F0.009109530025310184
sg17
F-0.17316361900918903
sg20
I270
sg23
S'1986'
p149
sg27
F1.014
sg30
I226
sg33
I2436
sg36
I2381
sg39
g78
sg43
F0.841
sg46
F0.698
sg49
F2.0
ssg15
S'GISSI-c'
p150
sbsI20
(idataset.study
Study
p151
(dp152
g7
I20
sg8
(dp153
g10
F0.009855695010545715
sg17
F-0.17673717850005405
sg20
I249
sg23
S'1988'
p154
sg27
F1.018
sg30
I214
sg33
I2008
sg36
I2018
sg39
g99
sg43
F0.838
sg46
F0.69
sg49
F9.0
ssg15
S'ISIS-2-f'
p155
sbsI21
(idataset.study
Study
p156
(dp157
g7
I21
sg8
(dp158
g10
F0.4961279871193025
sg17
F-0.19116050546115904
sg20
I5
sg23
S'1986'
p159
sg27
F3.285
sg30
I5
sg33
I24
sg36
I28
sg39
g42
sg43
F0.826
sg46
F0.208
sg49
F4.9
ssg15
S'Olson'
p160
sbsI22
(idataset.study
Study
p161
(dp162
g7
I22
sg8
(dp163
g10
F0.009879323714992538
sg17
F-0.2119563619236453
sg20
I254
sg23
S'1986'
p164
sg27
F0.983
sg30
I217
sg33
I1800
sg36
I1849
sg39
g42
sg43
F0.809
sg46
F0.667
sg49
F4.5
ssg15
S'GISSI-b'
p165
sbsI23
(idataset.study
Study
p166
(dp167
g7
I23
sg8
(dp168
g10
F0.018713041507939898
sg17
F-0.2395270305647338
sg20
I132
sg23
S'1988'
p169
sg27
F1.029
sg30
I106
sg33
I1227
sg36
I1224
sg39
g67
sg43
F0.787
sg46
F0.601
sg49
F18.0
ssg15
S'ISIS-2-e'
p170
sbsI24
(idataset.study
Study
p171
(dp172
g7
I24
sg8
(dp173
g10
F0.09016325067120942
sg17
F-0.28103752973311236
sg20
I20
sg23
S'1987'
p174
sg27
F1.36
sg30
I31
sg33
I206
sg36
I413
sg39
g99
sg43
F0.755
sg46
F0.419
sg49
F6.5
ssg15
S'ISIS Pilot'
p175
sbsI25
(idataset.study
Study
p176
(dp177
g7
I25
sg8
(dp178
g10
F0.01941376535857525
sg17
F-0.2984060358147566
sg20
I129
sg23
S'1988'
p179
sg27
F0.975
sg30
I99
sg33
I1488
sg36
I1504
sg39
g42
sg43
F0.742
sg46
F0.565
sg49
F4.1
ssg15
S'ASSET-b'
p180
sbsI26
(idataset.study
Study
p181
(dp182
g7
I26
sg8
(dp183
g10
F0.02380508316190884
sg17
F-0.32158362412746233
sg20
I107
sg23
S'1988'
p184
sg27
F0.981
sg30
I81
sg33
I979
sg36
I992
sg39
g78
sg43
F0.725
sg46
F0.535
sg49
F2.1
ssg15
S'ASSET'
p185
sbsI27
(idataset.study
Study
p186
(dp187
g7
I27
sg8
(dp188
g10
F0.4808593103453682
sg17
F-0.33128570993391293
sg20
I5
sg23
S'1987'
p189
sg27
F2.795
sg30
I4
sg33
I66
sg36
I72
sg39
g42
sg43
F0.718
sg46
F0.184
sg49
F3.2
ssg15
S'Guerci'
p190
sbsI28
(idataset.study
Study
p191
(dp192
g7
I28
sg8
(dp193
g10
F0.115464188941731
sg17
F-0.3974969384589874
sg20
I26
sg23
S'1971'
p194
sg27
F1.308
sg30
I20
sg33
I95
sg36
I99
sg39
g42
sg43
F0.672
sg46
F0.345
sg49
F4.5
ssg15
S'EWP-c'
p195
sbsI29
(idataset.study
Study
p196
(dp197
g7
I29
sg8
(dp198
g10
F0.01780915734066497
sg17
F-0.4019712188539085
sg20
I152
sg23
S'1988'
p199
sg27
F0.869
sg30
I106
sg33
I1243
sg36
I1243
sg39
g78
sg43
F0.669
sg46
F0.515
sg49
F2.5
ssg15
S'ISIS-2-d'
p200
sbsI30
(idataset.study
Study
p201
(dp202
g7
I30
sg8
(dp203
g10
F0.32110894330815243
sg17
F-0.41400143913045073
sg20
I10
sg23
S'1971'
p204
sg27
F2.007
sg30
I8
sg33
I29
sg36
I31
sg39
g67
sg43
F0.661
sg46
F0.218
sg49
F21.0
ssg15
S'EWP-b'
p205
sbsI31
(idataset.study
Study
p206
(dp207
g7
I31
sg8
(dp208
g10
F0.30953128414051106
sg17
F-0.4231200433468851
sg20
I10
sg23
S'1971'
p209
sg27
F1.949
sg30
I7
sg33
I39
sg36
I38
sg39
g67
sg43
F0.655
sg46
F0.22
sg49
F15.0
ssg15
S'EWP-a'
p210
sbsI32
(idataset.study
Study
p211
(dp212
g7
I32
sg8
(dp213
g10
F0.22177035099269074
sg17
F-0.4246479275249383
sg20
I12
sg23
S'1973'
p214
sg27
F1.646
sg30
I9
sg33
I80
sg36
I87
sg39
g67
sg43
F0.654
sg46
F0.26
sg49
F12.5
ssg15
S'Bett-b'
p215
sbsI33
(idataset.study
Study
p216
(dp217
g7
I33
sg8
(dp218
g10
F0.01858316018351817
sg17
F-0.42617814970570594
sg20
I147
sg23
S'1988'
p219
sg27
F0.853
sg30
I100
sg33
I1181
sg36
I1178
sg39
g42
sg43
F0.653
sg46
F0.499
sg49
F3.5
ssg15
S'ISIS-2-c'
p220
sbsI34
(idataset.study
Study
p221
(dp222
g7
I34
sg8
(dp223
g10
F0.15410341865288107
sg17
F-0.4604494164409239
sg20
I17
sg23
S'1988'
p224
sg27
F1.362
sg30
I12
sg33
I177
sg36
I191
sg39
g42
sg43
F0.631
sg46
F0.292
sg49
F3.5
ssg15
S'WWIVSK-b'
p225
sbsI35
(idataset.study
Study
p226
(dp227
g7
I35
sg8
(dp228
g10
F0.025248866465455603
sg17
F-0.47160491061270937
sg20
I111
sg23
S'1988'
p229
sg27
F0.852
sg30
I72
sg33
I957
sg36
I951
sg39
g78
sg43
F0.624
sg46
F0.457
sg49
F1.5
ssg15
S'ISIS-2-b'
p230
sbsI36
(idataset.study
Study
p231
(dp232
g7
I36
sg8
(dp233
g10
F1.0078585342711195
sg17
F-0.49265831981054176
sg20
I3
sg23
S'1973'
p234
sg27
F4.371
sg30
I2
sg33
I14
sg36
I14
sg39
g99
sg43
F0.611
sg46
F0.085
sg49
F8.5
ssg15
S'Gormsen'
p235
sbsI37
(idataset.study
Study
p236
(dp237
g7
I37
sg8
(dp238
g10
F0.6535634206638825
sg17
F-0.49593701127224005
sg20
I4
sg23
S'1987'
p239
sg27
F2.97
sg30
I3
sg33
I30
sg36
I35
sg39
g78
sg43
F0.609
sg46
F0.125
sg49
F2.7
ssg15
S'Croydon'
p240
sbsI38
(idataset.study
Study
p241
(dp242
g7
I38
sg8
(dp243
g10
F0.2636226882180624
sg17
F-0.5025268209512956
sg20
I12
sg23
S'1986'
p244
sg27
F1.655
sg30
I7
sg33
I67
sg36
I60
sg39
g78
sg43
F0.605
sg46
F0.221
sg49
F2.6
ssg15
S'Ikram'
p245
sbsI39
(idataset.study
Study
p246
(dp247
g7
I39
sg8
(dp248
g10
F0.654477565802602
sg17
F-0.5344354894051245
sg20
I4
sg23
S'1987'
p249
sg27
F2.861
sg30
I3
sg33
I29
sg36
I35
sg39
g78
sg43
F0.586
sg46
F0.12
sg49
F2.3
ssg15
S'Durand'
p250
sbsI40
(idataset.study
Study
p251
(dp252
g7
I40
sg8
(dp253
g10
F0.06173773371385833
sg17
F-0.5638748448558062
sg20
I48
sg23
S'1988'
p254
sg27
F0.926
sg30
I29
sg33
I357
sg36
I357
sg39
g78
sg43
F0.569
sg46
F0.35
sg49
F0.7
ssg15
S'ISIS-2-a'
p255
sbsI41
(idataset.study
Study
p256
(dp257
g7
I41
sg8
(dp258
g10
F0.09553882437888685
sg17
F-0.5762534290884459
sg20
I30
sg23
S'1988'
p259
sg27
F1.03
sg30
I18
sg33
I326
sg36
I334
sg39
g78
sg43
F0.562
sg46
F0.307
sg49
F2.3
ssg15
S'AIMS-a'
p260
sbsI42
(idataset.study
Study
p261
(dp262
g7
I42
sg8
(dp263
g10
F0.23746042067581677
sg17
F-0.6051363032372319
sg20
I14
sg23
S'1979'
p264
sg27
F1.419
sg30
I9
sg33
I48
sg36
I49
sg39
g42
sg43
F0.546
sg46
F0.21
sg49
F4.5
ssg15
S'ECSG-1-c'
p265
sbsI43
(idataset.study
Study
p266
(dp267
g7
I43
sg8
(dp268
g10
F0.4370992799343002
sg17
F-0.6481738149172142
sg20
I7
sg23
S'1986'
p269
sg27
F1.911
sg30
I4
sg33
I50
sg36
I51
sg39
g42
sg43
F0.523
sg46
F0.143
sg49
F3.3
ssg15
S'Bassand'
p270
sbsI44
(idataset.study
Study
p271
(dp272
g7
I44
sg8
(dp273
g10
F0.03296506226703942
sg17
F-0.715392789507265
sg20
I99
sg23
S'1986'
p274
sg27
F0.698
sg30
I52
sg33
I642
sg36
I635
sg39
g78
sg43
F0.489
sg46
F0.343
sg49
F0.7
ssg15
S'GISSI-a'
p275
sbsI45
(idataset.study
Study
p276
(dp277
g7
I45
sg8
(dp278
g10
F0.8911419532617026
sg17
F-0.7360546815712219
sg20
I2
sg23
S'1987'
p279
sg27
F3.047
sg30
I3
sg33
I25
sg36
I75
sg39
g42
sg43
F0.479
sg46
F0.075
sg49
F3.6
ssg15
S'Topol'
p280
sbsI46
(idataset.study
Study
p281
(dp282
g7
I46
sg8
(dp283
g10
F0.5432363166635684
sg17
F-0.7360546815712219
sg20
I6
sg23
S'1986'
p284
sg27
F2.031
sg30
I3
sg33
I51
sg36
I50
sg39
g78
sg43
F0.479
sg46
F0.113
sg49
F2.5
ssg15
S'Sainsous'
p285
sbsI47
(idataset.study
Study
p286
(dp287
g7
I47
sg8
(dp288
g10
F0.24550237630626276
sg17
F-0.7360546815712219
sg20
I15
sg23
S'1979'
p289
sg27
F1.265
sg30
I8
sg33
I50
sg36
I47
sg39
g99
sg43
F0.479
sg46
F0.181
sg49
F7.5
ssg15
S'ECSG-1-b'
p290
sbsI48
(idataset.study
Study
p291
(dp292
g7
I48
sg8
(dp293
g10
F0.10336976534236053
sg17
F-0.7444404749474959
sg20
I31
sg23
S'1985'
p294
sg27
F0.892
sg30
I16
sg33
I264
sg36
I269
sg39
g42
sg43
F0.475
sg46
F0.253
sg49
F3.2
ssg15
S'Simoons'
p295
sbsI49
(idataset.study
Study
p296
(dp297
g7
I49
sg8
(dp298
g10
F0.5224056078355781
sg17
F-0.7528971849657193
sg20
I7
sg23
S'1963'
p299
sg27
F1.942
sg30
I4
sg33
I21
sg36
I21
sg39
g99
sg43
F0.471
sg46
F0.114
sg49
F6.2
ssg15
S'Dewar'
p300
sbsI50
(idataset.study
Study
p301
(dp302
g7
I50
sg8
(dp303
g10
F0.11746553702665267
sg17
F-0.8556661100577202
sg20
I31
sg23
S'1988'
p304
sg27
F0.832
sg30
I14
sg33
I176
sg36
I168
sg39
g42
sg43
F0.425
sg46
F0.217
sg49
F5.0
ssg15
S'AIMS'
p305
sbsI51
(idataset.study
Study
p306
(dp307
g7
I51
sg8
(dp308
g10
F0.17750592339665464
sg17
F-0.8940401229393353
sg20
I19
sg23
S'1988'
p309
sg27
F0.934
sg30
I9
sg33
I151
sg36
I162
sg39
g78
sg43
F0.409
sg46
F0.179
sg49
F2.8
ssg15
S'Meinertz'
p310
sbsI52
(idataset.study
Study
p311
(dp312
g7
I52
sg8
(dp313
g10
F0.7925518529152824
sg17
F-0.9623346703755619
sg20
I5
sg23
S'1983'
p314
sg27
F2.187
sg30
I2
sg33
I26
sg36
I24
sg39
g78
sg43
F0.382
sg46
F0.067
sg49
F2.7
ssg15
S'Anderson'
p315
sbsI53
(idataset.study
Study
p316
(dp317
g7
I53
sg8
(dp318
g10
F0.4871810183233492
sg17
F-1.0244328904938582
sg20
I8
sg23
S'1988'
p319
sg27
F1.41
sg30
I3
sg33
I76
sg36
I74
sg39
g42
sg43
F0.359
sg46
F0.091
sg49
F3.5
ssg15
S'Brunelli'
p320
sbsI54
(idataset.study
Study
p321
(dp322
g7
I54
sg8
(dp323
g10
F0.37791356202431625
sg17
F-1.1086626245216111
sg20
I10
sg23
S'1973'
p324
sg27
F1.101
sg30
I4
sg33
I76
sg36
I84
sg39
g99
sg43
F0.33
sg46
F0.099
sg49
F6.5
ssg15
S'Bett-a'
p325
sbsI55
(idataset.study
Study
p326
(dp327
g7
I55
sg8
(dp328
g10
F0.29428910378691314
sg17
F-1.18090753139494
sg20
I13
sg23
S'1983'
p329
sg27
F0.889
sg30
I5
sg33
I116
sg36
I134
sg39
g42
sg43
F0.307
sg46
F0.106
sg49
F4.5
ssg15
S'WWICSK-a'
p330
sbsI56
(idataset.study
Study
p331
(dp332
g7
I56
sg8
(dp333
g10
F0.34076415275496375
sg17
F-1.3019532126861397
sg20
I14
sg23
S'1987'
p334
sg27
F0.854
sg30
I4
sg33
I112
sg36
I107
sg39
g78
sg43
F0.272
sg46
F0.086
sg49
F3.0
ssg15
S'White'
p335
sbsI57
(idataset.study
Study
p336
(dp337
g7
I57
sg8
(dp338
g10
F0.36023131937457764
sg17
F-1.3167682984712803
sg20
I11
sg23
S'1979'
p339
sg27
F0.869
sg30
I5
sg33
I34
sg36
I44
sg39
g67
sg43
F0.268
sg46
F0.083
sg49
F10.5
ssg15
S'ECSG-1-a'
p340
sbsI58
(idataset.study
Study
p341
(dp342
g7
I58
sg8
(dp343
g10
F1.36249185045159
sg17
F-1.5558971455060706
sg20
I4
sg23
S'1983'
p344
sg27
F2.079
sg30
I1
sg33
I20
sg36
I20
sg39
g42
sg43
F0.211
sg46
F0.021
sg49
F5.0
ssg15
S'Khaja'
p345
sbsI59
(idataset.study
Study
p346
(dp347
g7
I59
sg8
(dp348
g10
F1.374406950126716
sg17
F-1.5702171992808192
sg20
I4
sg23
S'1986'
p349
sg27
F2.07
sg30
I1
sg33
I19
sg36
I19
sg39
g42
sg43
F0.208
sg46
F0.021
sg49
F3.4
ssg15
S'Schreiber'
p350
sbsI60
(idataset.study
Study
p351
(dp352
g7
I60
sg8
(dp353
g10
F1.2623407087714524
sg17
F-1.7037485919053417
sg20
I5
sg23
S'1973'
p354
sg27
F1.646
sg30
I1
sg33
I35
sg36
I34
sg39
g42
sg43
F0.182
sg46
F0.02
sg49
F3.5
ssg15
S'Bett'
p355
sbsI61
(idataset.study
Study
p356
(dp357
g7
I61
sg8
(dp358
g10
F0.5863279376398596
sg17
F-1.7778565640590636
sg20
I13
sg23
S'1988'
p359
sg27
F0.758
sg30
I2
sg33
I207
sg36
I179
sg39
g78
sg43
F0.169
sg46
F0.038
sg49
F2.0
ssg15
S'ECSG-2-d'
p360
sbsI62
(idataset.study
Study
p361
(dp362
g7
I62
sg8
(dp363
g10
F1.4846325498731248
sg17
F-1.8388510767619055
sg20
I4
sg23
S'1959'
p364
sg27
F1.732
sg30
I1
sg33
I11
sg36
I12
sg39
g99
sg43
F0.159
sg46
F0.015
sg49
F9.0
ssg15
S'Fletcher'
p365
sbsI63
(idataset.study
Study
p366
(dp367
g7
I63
sg8
(dp368
g10
F1.194887551725521
sg17
F-2.0955709236097197
sg20
I7
sg23
S'1987'
p369
sg27
F1.048
sg30
I1
sg33
I45
sg36
I45
sg39
g42
sg43
F0.123
sg46
F0.015
sg49
F3.3
ssg15
S'Julian'
p370
sbsI64
(idataset.study
Study
p371
(dp372
g7
I64
sg8
(dp373
g10
F2.2850590323433453
sg17
F-2.6036901857779675
sg20
I5
sg23
S'1987'
p374
sg27
F1.432
sg30
I0
sg33
I22
sg36
I21
sg39
g78
sg43
F0.074
sg46
F0.004
sg49
F2.9
ssg15
S'Buchalter'
p375
sbssS'conf_level'
p376
I95
sS'dirty'
p377
I01
sS'variable_groups'
p378
(lp379
(iee_model
VariableGroup
p380
(dp381
S'name'
p382
S'Odds Ratio column group'
p383
sS'data_keys'
p384
(lp385
S'control_response'
p386
aS'control_noresponse'
p387
aS'experimental_response'
p388
aS'experimental_noresponse'
p389
asS'effect_keys'
p390
(lp391
I1
aI0
aI2
aI3
aI4
asS'metric'
p392
I2
sS'data_type'
p393
I1
sS'group_data'
p394
(dp395
I0
g17
sI1
g10
sI2
g43
sI3
g46
sI4
g27
sS'experimental_std_dev'
p396
NsS'experimental_sample_size'
p397
NsS'control_std_dev'
p398
NsS'control_sample_size'
p399
Nsg388
NsS'sample_size'
p400
Nsg389
NsS'experimental_mean'
p401
Nsg387
NsS'correlation'
p402
Nsg386
NsS'control_mean'
p403
NssbasS'last_analysis_selections'
p404
(dp405
S'data_locations'
p406
(dp407
I0
(dp408
sI1
(dp409
g387
Nsg389
NsS'variance'
p410
I12
sS'effect_size'
p411
I11
sg386
Nsg388
NssI2
(dp412
ssS'phylogen'
p413
I00
sg393
I1
sS'included_studies'
p414
c__builtin__
set
p415
((lp416
g306
ag251
ag261
ag271
ag90
ag221
ag186
ag246
ag266
ag151
ag63
ag136
ag196
ag121
ag166
ag58
ag321
ag156
ag176
ag171
ag231
ag211
ag291
ag236
ag296
ag336
ag311
ag131
ag341
ag116
ag101
ag216
ag226
ag286
ag346
ag351
ag5
ag361
ag356
ag95
ag161
ag316
ag126
ag106
ag191
ag371
ag146
ag366
ag53
ag141
ag256
ag281
ag181
ag201
ag74
ag85
ag241
ag276
ag326
ag301
ag206
ag111
ag80
ag69
ag331
atp417
Rp418
sS'bootstrap_params'
p419
NsS'cov_2_ref_values'
p420
Nsg376
NsS'knha'
p421
I00
sS'analysis_type'
p422
I0
sS'failsafe_parameters'
p423
Nsg392
I2
sS'subgroup_variable'
p424
NsS'fixed_effects'
p425
NsS'included_covariates'
p426
NsS'funnel_params'
p427
NsS'random_effects_method'
p428
S'REML'
p429
sS'ma_param_vals'
p430
NsS'covs_to_values'
p431
NsS'method'
p432
NsS'selected_cov'
p433
NssS'dataset'
p434
(idataset.ee_dataset
EEDataSet
p435
(dp436
S'variable_collection'
p437
ccopy_reg
_reconstructor
p438
(cdataset.variable_collection
VariableCollection
p439
c__builtin__
object
p440
Ntp441
Rp442
(dp443
S'item_class'
p444
cdataset.variable
Variable
p445
sS'ids_to_items'
p446
(dp447
I1
g23
sI2
g30
sI3
g36
sI4
g20
sI5
g33
sI6
g43
sI7
g46
sI8
g27
sI9
g49
sI10
g39
sI11
g17
sI12
g10
ssbsS'study_collection'
p448
g438
(cdataset.study_collection
StudyCollection
p449
g440
Ntp450
Rp451
(dp452
g444
cdataset.study
Study
p453
sg446
(dp454
I0
g5
sI1
g53
sI2
g58
sI3
g63
sI4
g69
sI5
g74
sI6
g80
sI7
g85
sI8
g90
sI9
g95
sI10
g101
sI11
g106
sI12
g111
sI13
g116
sI14
g121
sI15
g126
sI16
g131
sI17
g136
sI18
g141
sI19
g146
sI20
g151
sI21
g156
sI22
g161
sI23
g166
sI24
g171
sI25
g176
sI26
g181
sI27
g186
sI28
g191
sI29
g196
sI30
g201
sI31
g206
sI32
g211
sI33
g216
sI34
g221
sI35
g226
sI36
g231
sI37
g236
sI38
g241
sI39
g246
sI40
g251
sI41
g256
sI42
g261
sI43
g266
sI44
g271
sI45
g276
sI46
g281
sI47
g286
sI48
g291
sI49
g296
sI50
g301
sI51
g306
sI52
g311
sI53
g316
sI54
g321
sI55
g326
sI56
g331
sI57
g336
sI58
g341
sI59
g346
sI60
g351
sI61
g356
sI62
g361
sI63
g366
sI64
g371
ssbsbsS'cols_2_vars'
p455
(dp456
I1
g23
sI2
g30
sI3
g36
sI4
g20
sI5
g33
sI6
g43
sI7
g46
sI8
g27
sI9
g49
sI10
g39
sI11
g17
sI12
g10
ssS'label_column_name_label'
p457
S'study name'
p458
sb.