(iee_model
ModelState
p0
(dp1
S'label_column'
p2
I0
sS'rows_2_studies'
p3
(dp4
I0
(idataset.study
Study
p5
(dp6
S'study_id'
p7
I0
sS'variables'
p8
(dp9
(idataset.variable
Variable
p10
(dp11
S'var_id'
p12
I0
sS'sub_type'
p13
NsS'var_type'
p14
I0
sS'label'
p15
S'age'
p16
sbS'20-39'
p17
ssg15
S'Study 1'
p18
sbsI1
(idataset.study
Study
p19
(dp20
g7
I1
sg8
(dp21
(idataset.variable
Variable
p22
(dp23
g12
I1
sg13
Nsg14
I1
sg15
S'bmi'
p24
sbF22.7
s(idataset.variable
Variable
p25
(dp26
g12
I3
sg13
Nsg14
I1
sg15
S'chl'
p27
sbF187.0
sg10
S'40-59'
p28
s(idataset.variable
Variable
p29
(dp30
g12
I2
sg13
Nsg14
I0
sg15
S'hyp'
p31
sbS'no'
p32
ssg15
S'Study 2'
p33
sbsI2
(idataset.study
Study
p34
(dp35
g7
I2
sg8
(dp36
g25
F187.0
sg10
S'20-39'
p37
sg29
S'no'
p38
ssg15
S'Study 3'
p39
sbsI3
(idataset.study
Study
p40
(dp41
g7
I3
sg8
(dp42
g10
S'60-99'
p43
ssg15
S'Study 4'
p44
sbsI4
(idataset.study
Study
p45
(dp46
g7
I4
sg8
(dp47
g22
F20.4
sg25
F113.0
sg10
S'20-39'
p48
sg29
S'no'
p49
ssg15
S'Study 5'
p50
sbsI5
(idataset.study
Study
p51
(dp52
g7
I5
sg8
(dp53
g25
F184.0
sg10
S'60-99'
p54
ssg15
S'Study 6'
p55
sbsI6
(idataset.study
Study
p56
(dp57
g7
I6
sg8
(dp58
g22
F22.5
sg25
F118.0
sg10
S'20-39'
p59
sg29
S'no'
p60
ssg15
S'Study 7'
p61
sbsI7
(idataset.study
Study
p62
(dp63
g7
I7
sg8
(dp64
g22
F30.1
sg25
F187.0
sg10
S'20-39'
p65
sg29
S'no'
p66
ssg15
S'Study 8'
p67
sbsI8
(idataset.study
Study
p68
(dp69
g7
I8
sg8
(dp70
g22
F22.0
sg25
F238.0
sg10
S'40-59'
p71
sg29
S'no'
p72
ssg15
S'Study 9'
p73
sbsI9
(idataset.study
Study
p74
(dp75
g7
I9
sg8
(dp76
g10
S'40-59'
p77
ssg15
S'Study 10'
p78
sbsI10
(idataset.study
Study
p79
(dp80
g7
I10
sg8
(dp81
g10
S'20-39'
p82
ssg15
S'Study 11'
p83
sbsI11
(idataset.study
Study
p84
(dp85
g7
I11
sg8
(dp86
g10
S'40-59'
p87
ssg15
S'Study 12'
p88
sbsI12
(idataset.study
Study
p89
(dp90
g7
I12
sg8
(dp91
g22
F21.7
sg25
F206.0
sg10
S'60-99'
p92
sg29
S'no'
p93
ssg15
S'Study 13'
p94
sbsI13
(idataset.study
Study
p95
(dp96
g7
I13
sg8
(dp97
g22
F28.7
sg25
F204.0
sg10
S'40-59'
p98
sg29
S'yes'
p99
ssg15
S'Study 14'
p100
sbsI14
(idataset.study
Study
p101
(dp102
g7
I14
sg8
(dp103
g22
F29.6
sg10
S'20-39'
p104
sg29
S'no'
p105
ssg15
S'Study 15'
p106
sbsI15
(idataset.study
Study
p107
(dp108
g7
I15
sg8
(dp109
g10
S'20-39'
p110
ssg15
S'Study 16'
p111
sbsI16
(idataset.study
Study
p112
(dp113
g7
I16
sg8
(dp114
g22
F27.2
sg25
F284.0
sg10
S'60-99'
p115
sg29
S'yes'
p116
ssg15
S'Study 17'
p117
sbsI17
(idataset.study
Study
p118
(dp119
g7
I17
sg8
(dp120
g22
F26.3
sg25
F199.0
sg10
S'40-59'
p121
sg29
S'yes'
p122
ssg15
S'Study 18'
p123
sbsI18
(idataset.study
Study
p124
(dp125
g7
I18
sg8
(dp126
g22
F35.3
sg25
F218.0
sg10
S'20-39'
p127
sg29
S'no'
p128
ssg15
S'Study 19'
p129
sbsI19
(idataset.study
Study
p130
(dp131
g7
I19
sg8
(dp132
g22
F25.5
sg10
S'60-99'
p133
sg29
S'yes'
p134
ssg15
S'Study 20'
p135
sbsI20
(idataset.study
Study
p136
(dp137
g7
I20
sg8
(dp138
g10
S'20-39'
p139
ssg15
S'Study 21'
p140
sbsI21
(idataset.study
Study
p141
(dp142
g7
I21
sg8
(dp143
g22
F33.2
sg25
F229.0
sg10
S'20-39'
p144
sg29
S'no'
p145
ssg15
S'Study 22'
p146
sbsI22
(idataset.study
Study
p147
(dp148
g7
I22
sg8
(dp149
g22
F27.5
sg25
F131.0
sg10
S'20-39'
p150
sg29
S'no'
p151
ssg15
S'Study 23'
p152
sbsI23
(idataset.study
Study
p153
(dp154
g7
I23
sg8
(dp155
g22
F24.9
sg10
S'60-99'
p156
sg29
S'no'
p157
ssg15
S'Study 24'
p158
sbsI24
(idataset.study
Study
p159
(dp160
g7
I24
sg8
(dp161
g22
F27.4
sg25
F186.0
sg10
S'40-59'
p162
sg29
S'no'
p163
ssg15
S'Study 25'
p164
sbssS'conf_level'
p165
I95
sS'dirty'
p166
I01
sS'variable_groups'
p167
(lp168
sS'last_analysis_selections'
p169
(dp170
S'metric'
p171
NsS'data_locations'
p172
(dp173
I0
(dp174
sI1
(dp175
sI2
(dp176
ssS'fixed_effects'
p177
NsS'included_covariates'
p178
NsS'data_type'
p179
NsS'funnel_params'
p180
NsS'included_studies'
p181
NsS'bootstrap_params'
p182
NsS'cov_2_ref_values'
p183
NsS'failsafe_parameters'
p184
NsS'covs_to_values'
p185
NsS'conf_level'
p186
NsS'phylogen'
p187
I00
sS'analysis_type'
p188
I0
sS'random_effects_method'
p189
NsS'ma_param_vals'
p190
NsS'method'
p191
NsS'selected_cov'
p192
NsS'subgroup_variable'
p193
NssS'dataset'
p194
(idataset.ee_dataset
EEDataSet
p195
(dp196
S'variable_collection'
p197
ccopy_reg
_reconstructor
p198
(cdataset.variable_collection
VariableCollection
p199
c__builtin__
object
p200
Ntp201
Rp202
(dp203
S'item_class'
p204
cdataset.variable
Variable
p205
sS'ids_to_items'
p206
(dp207
I0
g10
sI1
g22
sI2
g29
sI3
g25
ssbsS'study_collection'
p208
g198
(cdataset.study_collection
StudyCollection
p209
g200
Ntp210
Rp211
(dp212
g204
cdataset.study
Study
p213
sg206
(dp214
I0
g5
sI1
g19
sI2
g34
sI3
g40
sI4
g45
sI5
g51
sI6
g56
sI7
g62
sI8
g68
sI9
g74
sI10
g79
sI11
g84
sI12
g89
sI13
g95
sI14
g101
sI15
g107
sI16
g112
sI17
g118
sI18
g124
sI19
g130
sI20
g136
sI21
g141
sI22
g147
sI23
g153
sI24
g159
ssbsbsS'cols_2_vars'
p215
(dp216
I1
g10
sI2
g22
sI3
g29
sI4
g25
ssS'label_column_name_label'
p217
S'A'
p218
sb.