(iee_model
ModelState
p0
(dp1
S'label_column'
p2
I0
sS'rows_2_studies'
p3
(dp4
I0
(idataset.study
Study
p5
(dp6
S'study_id'
p7
I0
sS'variables'
p8
(dp9
(idataset.variable
Variable
p10
(dp11
S'var_id'
p12
I3
sS'sub_type'
p13
I1
sS'var_type'
p14
I1
sS'label'
p15
S'var'
p16
sbF0.2
s(idataset.variable
Variable
p17
(dp18
g12
I1
sg13
Nsg14
I0
sg15
S'species'
p19
sbS'A'
p20
s(idataset.variable
Variable
p21
(dp22
g12
I2
sg13
I0
sg14
I1
sg15
S'effects'
p23
sbF0.5
ssg15
S'study 1'
p24
sbsI1
(idataset.study
Study
p25
(dp26
g7
I1
sg8
(dp27
g10
F0.1
sg17
S'A'
p28
sg21
F0.2
ssg15
S'study 2'
p29
sbsI2
(idataset.study
Study
p30
(dp31
g7
I2
sg8
(dp32
g10
F0.4
sg17
S'B'
p33
sg21
F0.2
ssg15
S'study 3'
p34
sbsI3
(idataset.study
Study
p35
(dp36
g7
I3
sg8
(dp37
g10
F0.8
sg17
S'C'
p38
sg21
F0.1
ssg15
S'study 4'
p39
sbsI4
(idataset.study
Study
p40
(dp41
g7
I4
sg8
(dp42
g10
F0.9
sg17
S'D'
p43
sg21
F0.8
ssg15
S'study 5'
p44
sbsI5
(idataset.study
Study
p45
(dp46
g7
I5
sg8
(dp47
g10
F0.2
sg17
S'E'
p48
sg21
F0.9
ssg15
S'study 6'
p49
sbsI6
(idataset.study
Study
p50
(dp51
g7
I6
sg8
(dp52
g10
F0.1
sg17
S'E'
p53
sg21
F1.0
ssg15
S'study 7'
p54
sbssS'conf_level'
p55
I95
sS'dirty'
p56
I01
sS'variable_groups'
p57
(lp58
sS'last_analysis_selections'
p59
(dp60
S'metric'
p61
NsS'data_locations'
p62
(dp63
I0
(dp64
sI1
(dp65
sI2
(dp66
ssS'fixed_effects'
p67
NsS'included_covariates'
p68
NsS'data_type'
p69
NsS'funnel_params'
p70
NsS'included_studies'
p71
NsS'bootstrap_params'
p72
NsS'cov_2_ref_values'
p73
NsS'failsafe_parameters'
p74
NsS'covs_to_values'
p75
NsS'conf_level'
p76
NsS'phylogen'
p77
I00
sS'analysis_type'
p78
I0
sS'random_effects_method'
p79
NsS'ma_param_vals'
p80
NsS'method'
p81
NsS'selected_cov'
p82
NsS'subgroup_variable'
p83
NssS'dataset'
p84
(idataset.ee_dataset
EEDataSet
p85
(dp86
S'variable_collection'
p87
ccopy_reg
_reconstructor
p88
(cdataset.variable_collection
VariableCollection
p89
c__builtin__
object
p90
Ntp91
Rp92
(dp93
S'item_class'
p94
cdataset.variable
Variable
p95
sS'ids_to_items'
p96
(dp97
I1
g17
sI2
g21
sI3
g10
ssbsS'study_collection'
p98
g88
(cdataset.study_collection
StudyCollection
p99
g90
Ntp100
Rp101
(dp102
g94
cdataset.study
Study
p103
sg96
(dp104
I0
g5
sI1
g25
sI2
g30
sI3
g35
sI4
g40
sI5
g45
sI6
g50
ssbsbsS'cols_2_vars'
p105
(dp106
I1
g17
sI2
g21
sI3
g10
ssS'label_column_name_label'
p107
S'A'
p108
sb.