(iee_model
ModelState
p0
(dp1
S'label_column'
p2
I0
sS'rows_2_studies'
p3
(dp4
I0
(idataset.study
Study
p5
(dp6
S'study_id'
p7
I0
sS'variables'
p8
(dp9
(idataset.variable
Variable
p10
(dp11
S'var_id'
p12
I6
sS'sub_type'
p13
I4
sS'var_type'
p14
I1
sS'label'
p15
S'ub(OR)'
p16
sbF3.9611030742327613
s(idataset.variable
Variable
p17
(dp18
g12
I3
sg13
I1
sg14
I1
sg15
S'var'
p19
sbF0.2
s(idataset.variable
Variable
p20
(dp21
g12
I1
sg13
Nsg14
I0
sg15
S'species'
p22
sbS'A'
p23
s(idataset.variable
Variable
p24
(dp25
g12
I2
sg13
I0
sg14
I1
sg15
S'effects'
p26
sbF0.5
s(idataset.variable
Variable
p27
(dp28
g12
I4
sg13
I2
sg14
I1
sg15
S'OR'
p29
sbF1.6487212707001282
s(idataset.variable
Variable
p30
(dp31
g12
I5
sg13
I3
sg14
I1
sg15
S'lb(OR)'
p32
sbF0.6862436491849074
ssg15
S'study 1'
p33
sbsI1
(idataset.study
Study
p34
(dp35
g7
I1
sg8
(dp36
g10
F2.270034506103798
sg17
F0.1
sg20
S'A'
p37
sg24
F0.2
sg27
F1.2214027581601699
sg30
F0.657181506990298
ssg15
S'study 2'
p38
sbsI2
(idataset.study
Study
p39
(dp40
g7
I2
sg8
(dp41
g10
F4.218965958996272
sg17
F0.4
sg20
S'B'
p42
sg24
F0.2
sg27
F1.2214027581601699
sg30
F0.35359960524454864
ssg15
S'study 3'
p43
sbsI3
(idataset.study
Study
p44
(dp45
g7
I3
sg8
(dp46
g10
F6.379215204893688
sg17
F0.8
sg20
S'C'
p47
sg24
F0.1
sg27
F1.1051709180756477
sg30
F0.1914659905536962
ssg15
S'study 4'
p48
sbsI4
(idataset.study
Study
p49
(dp50
g7
I4
sg8
(dp51
g10
F14.287500968589027
sg17
F0.9
sg20
S'D'
p52
sg24
F0.8
sg27
F2.225540928492468
sg30
F0.3466689125890052
ssg15
S'study 5'
p53
sbsI5
(idataset.study
Study
p54
(dp55
g7
I5
sg8
(dp56
g10
F5.909271396043195
sg17
F0.2
sg20
S'E'
p57
sg24
F0.9
sg27
F2.45960311115695
sg30
F1.0237552244535164
ssg15
S'study 6'
p58
sbsI6
(idataset.study
Study
p59
(dp60
g7
I6
sg8
(dp61
g10
F5.052054702424186
sg17
F0.1
sg20
S'E'
p62
sg24
F1.0
sg27
F2.718281828459045
sg30
F1.4625843412552668
ssg15
S'study 7'
p63
sbssS'conf_level'
p64
I95
sS'dirty'
p65
I01
sS'variable_groups'
p66
(lp67
(iee_model
VariableGroup
p68
(dp69
S'name'
p70
S'Odds Ratio column group'
p71
sS'data_keys'
p72
(lp73
S'control_response'
p74
aS'control_noresponse'
p75
aS'experimental_response'
p76
aS'experimental_noresponse'
p77
asS'effect_keys'
p78
(lp79
I1
aI0
aI2
aI3
aI4
asS'metric'
p80
I2
sS'data_type'
p81
I1
sS'group_data'
p82
(dp83
I0
g24
sI1
g17
sI2
g27
sI3
g30
sI4
g10
sS'experimental_std_dev'
p84
NsS'experimental_sample_size'
p85
NsS'control_std_dev'
p86
NsS'control_sample_size'
p87
Nsg76
NsS'sample_size'
p88
Nsg77
NsS'experimental_mean'
p89
Nsg75
NsS'correlation'
p90
Nsg74
NsS'control_mean'
p91
NssbasS'last_analysis_selections'
p92
(dp93
S'bootstrap_params'
p94
NsS'fixed_effects'
p95
I00
sS'included_covariates'
p96
NsS'data_type'
p97
I1
sS'funnel_params'
p98
NsS'random_effects_method'
p99
S'REML'
p100
sS'metric'
p101
I2
sS'data_locations'
p102
(dp103
I0
(dp104
sI1
(dp105
S'variance'
p106
I3
sS'effect_size'
p107
I2
sS'species'
p108
I1
ssI2
(dp109
ssS'cov_2_ref_values'
p110
NsS'failsafe_parameters'
p111
NsS'analysis_type'
p112
I0
sS'conf_level'
p113
F95.0
sS'selected_cov'
p114
NsS'covs_to_values'
p115
NsS'phylogen'
p116
I00
sS'method'
p117
NsS'included_studies'
p118
c__builtin__
set
p119
((lp120
g54
ag59
ag34
ag39
ag44
ag49
ag5
atp121
Rp122
sS'ma_param_vals'
p123
NsS'subgroup_variable'
p124
NssS'dataset'
p125
(idataset.ee_dataset
EEDataSet
p126
(dp127
S'variable_collection'
p128
ccopy_reg
_reconstructor
p129
(cdataset.variable_collection
VariableCollection
p130
c__builtin__
object
p131
Ntp132
Rp133
(dp134
S'item_class'
p135
cdataset.variable
Variable
p136
sS'ids_to_items'
p137
(dp138
I1
g20
sI2
g24
sI3
g17
sI4
g27
sI5
g30
sI6
g10
ssbsS'study_collection'
p139
g129
(cdataset.study_collection
StudyCollection
p140
g131
Ntp141
Rp142
(dp143
g135
cdataset.study
Study
p144
sg137
(dp145
I0
g5
sI1
g34
sI2
g39
sI3
g44
sI4
g49
sI5
g54
sI6
g59
ssbsbsS'cols_2_vars'
p146
(dp147
I1
g20
sI2
g24
sI3
g17
sI4
g27
sI5
g30
sI6
g10
ssS'label_column_name_label'
p148
S'A'
p149
sb.