(iee_model
ModelState
p0
(dp1
S'label_column'
p2
I3
sS'rows_2_studies'
p3
(dp4
I0
(idataset.study
Study
p5
(dp6
S'study_id'
p7
I0
sS'variables'
p8
(dp9
(idataset.variable
Variable
p10
(dp11
S'var_id'
p12
I1
sS'sub_type'
p13
I1
sS'var_type'
p14
I1
sS'label'
p15
S'effect.size.variance'
p16
sbF0.009049045
s(idataset.variable
Variable
p17
(dp18
g12
I2
sg13
Nsg14
I2
sg15
S'N'
p19
sbI98
s(idataset.variable
Variable
p20
(dp21
g12
I0
sg13
I0
sg14
I1
sg15
S'effect.size'
p22
sbF0.251222927
ssg15
S'study label 01'
p23
sbsI1
(idataset.study
Study
p24
(dp25
g7
I1
sg8
(dp26
g10
F0.0069543
sg17
I110
sg20
F0.359662774
ssg15
S'study label 02'
p27
sbsI2
(idataset.study
Study
p28
(dp29
g7
I2
sg8
(dp30
g10
F0.012720911
sg17
I60
sg20
F0.365604284
ssg15
S'study label 03'
p31
sbsI3
(idataset.study
Study
p32
(dp33
g7
I3
sg8
(dp34
g10
F0.015320798
sg17
I64
sg20
F0.132471994
ssg15
S'study label 04'
p35
sbsI4
(idataset.study
Study
p36
(dp37
g7
I4
sg8
(dp38
g10
F0.005453874
sg17
I127
sg20
F0.413560041
ssg15
S'study label 05'
p39
sbsI5
(idataset.study
Study
p40
(dp41
g7
I5
sg8
(dp42
g10
F0.006199695
sg17
I125
sg20
F0.351011661
ssg15
S'study label 06'
p43
sbsI6
(idataset.study
Study
p44
(dp45
g7
I6
sg8
(dp46
g10
F0.006348592
sg17
I133
sg20
F0.29080727
ssg15
S'study label 07'
p47
sbsI7
(idataset.study
Study
p48
(dp49
g7
I7
sg8
(dp50
g10
F0.015338259
sg17
I60
sg20
F0.220697921
ssg15
S'study label 08'
p51
sbsI8
(idataset.study
Study
p52
(dp53
g7
I8
sg8
(dp54
g10
F0.006149291
sg17
I133
sg20
F0.314726091
ssg15
S'study label 09'
p55
sbsI9
(idataset.study
Study
p56
(dp57
g7
I9
sg8
(dp58
g10
F0.009633331
sg17
I87
sg20
F0.299664236
ssg15
S'study label 10'
p59
sbsI10
(idataset.study
Study
p60
(dp61
g7
I10
sg8
(dp62
g10
F0.008786344
sg17
I94
sg20
F0.309915434
ssg15
S'study label 11'
p63
sbsI11
(idataset.study
Study
p64
(dp65
g7
I11
sg8
(dp66
g10
F0.020819539
sg17
I49
sg20
F0.018196837
ssg15
S'study label 12'
p67
sbsI12
(idataset.study
Study
p68
(dp69
g7
I12
sg8
(dp70
g10
F0.00923364
sg17
I99
sg20
F0.220769991
ssg15
S'study label 13'
p71
sbsI13
(idataset.study
Study
p72
(dp73
g7
I13
sg8
(dp74
g10
F0.014752276
sg17
I58
sg20
F0.288105953
ssg15
S'study label 14'
p75
sbsI14
(idataset.study
Study
p76
(dp77
g7
I14
sg8
(dp78
g10
F0.006165081
sg17
I161
sg20
F0.082563839
ssg15
S'study label 15'
p79
sbsI15
(idataset.study
Study
p80
(dp81
g7
I15
sg8
(dp82
g10
F0.010718104
sg17
I87
sg20
F0.199795575
ssg15
S'study label 16'
p83
sbsI16
(idataset.study
Study
p84
(dp85
g7
I16
sg8
(dp86
g10
F0.011958481
sg17
I72
sg20
F0.280285088
ssg15
S'study label 17'
p87
sbsI17
(idataset.study
Study
p88
(dp89
g7
I17
sg8
(dp90
g10
F0.006707227
sg17
I111
sg20
F0.375566345
ssg15
S'study label 18'
p91
sbsI18
(idataset.study
Study
p92
(dp93
g7
I18
sg8
(dp94
g10
F0.014358686
sg17
I68
sg20
F0.138447493
ssg15
S'study label 19'
p95
sbsI19
(idataset.study
Study
p96
(dp97
g7
I19
sg8
(dp98
g10
F0.012663905
sg17
I66
sg20
F0.304502484
ssg15
S'study label 20'
p99
sbsI20
(idataset.study
Study
p100
(dp101
g7
I20
sg8
(dp102
g10
F0.006940967
sg17
I125
sg20
F0.268833813
ssg15
S'study label 21'
p103
sbsI21
(idataset.study
Study
p104
(dp105
g7
I21
sg8
(dp106
g10
F0.004328909
sg17
I178
sg20
F0.353074827
ssg15
S'study label 22'
p107
sbsI22
(idataset.study
Study
p108
(dp109
g7
I22
sg8
(dp110
g10
F0.004772763
sg17
I143
sg20
F0.420422366
ssg15
S'study label 23'
p111
sbsI23
(idataset.study
Study
p112
(dp113
g7
I23
sg8
(dp114
g10
F0.007469964
sg17
I122
sg20
F0.221994369
ssg15
S'study label 24'
p115
sbsI24
(idataset.study
Study
p116
(dp117
g7
I24
sg8
(dp118
g10
F0.003674412
sg17
I208
sg20
F0.357595146
ssg15
S'study label 25'
p119
sbsI25
(idataset.study
Study
p120
(dp121
g7
I25
sg8
(dp122
g10
F0.012211691
sg17
I70
sg20
F0.286467997
ssg15
S'study label 26'
p123
sbsI26
(idataset.study
Study
p124
(dp125
g7
I26
sg8
(dp126
g10
F0.012937646
sg17
I56
sg20
F0.395542146
ssg15
S'study label 27'
p127
sbsI27
(idataset.study
Study
p128
(dp129
g7
I27
sg8
(dp130
g10
F0.00729066
sg17
I109
sg20
F0.335632696
ssg15
S'study label 28'
p131
sbsI28
(idataset.study
Study
p132
(dp133
g7
I28
sg8
(dp134
g10
F0.009427624
sg17
I104
sg20
F0.120763021
ssg15
S'study label 29'
p135
sbsI29
(idataset.study
Study
p136
(dp137
g7
I29
sg8
(dp138
g10
F0.008445885
sg17
I92
sg20
F0.351163226
ssg15
S'study label 30'
p139
sbsI30
(idataset.study
Study
p140
(dp141
g7
I30
sg8
(dp142
g10
F0.006999857
sg17
I104
sg20
F0.38844754
ssg15
S'study label 31'
p143
sbsI31
(idataset.study
Study
p144
(dp145
g7
I31
sg8
(dp146
g10
F0.004160144
sg17
I208
sg20
F0.268362539
ssg15
S'study label 32'
p147
sbsI32
(idataset.study
Study
p148
(dp149
g7
I32
sg8
(dp150
g10
F0.006455291
sg17
I120
sg20
F0.351484633
ssg15
S'study label 33'
p151
sbsI33
(idataset.study
Study
p152
(dp153
g7
I33
sg8
(dp154
g10
F0.017035408
sg17
I53
sg20
F0.24250489
ssg15
S'study label 34'
p155
sbsI34
(idataset.study
Study
p156
(dp157
g7
I34
sg8
(dp158
g10
F0.009103826
sg17
I97
sg20
F0.255221155
ssg15
S'study label 35'
p159
sbsI35
(idataset.study
Study
p160
(dp161
g7
I35
sg8
(dp162
g10
F0.018741701
sg17
I50
sg20
F0.204200073
ssg15
S'study label 36'
p163
sbsI36
(idataset.study
Study
p164
(dp165
g7
I36
sg8
(dp166
g10
F0.003414737
sg17
I194
sg20
F0.433802537
ssg15
S'study label 37'
p167
sbsI37
(idataset.study
Study
p168
(dp169
g7
I37
sg8
(dp170
g10
F0.006978668
sg17
I123
sg20
F0.278007089
ssg15
S'study label 38'
p171
sbsI38
(idataset.study
Study
p172
(dp173
g7
I38
sg8
(dp174
g10
F0.005836558
sg17
I127
sg20
F0.377414447
ssg15
S'study label 39'
p175
sbsI39
(idataset.study
Study
p176
(dp177
g7
I39
sg8
(dp178
g10
F0.00477209
sg17
I195
sg20
F0.194480138
ssg15
S'study label 40'
p179
sbsI40
(idataset.study
Study
p180
(dp181
g7
I40
sg8
(dp182
g10
F0.018064267
sg17
I44
sg20
F0.344467919
ssg15
S'study label 41'
p183
sbsI41
(idataset.study
Study
p184
(dp185
g7
I41
sg8
(dp186
g10
F0.010339385
sg17
I76
sg20
F0.345545078
ssg15
S'study label 42'
p187
sbsI42
(idataset.study
Study
p188
(dp189
g7
I42
sg8
(dp190
g10
F0.009010573
sg17
I84
sg20
F0.367696705
ssg15
S'study label 43'
p191
sbsI43
(idataset.study
Study
p192
(dp193
g7
I43
sg8
(dp194
g10
F0.004951786
sg17
I178
sg20
F0.252591178
ssg15
S'study label 44'
p195
sbsI44
(idataset.study
Study
p196
(dp197
g7
I44
sg8
(dp198
g10
F0.021220821
sg17
I39
sg20
F0.319385547
ssg15
S'study label 45'
p199
sbsI45
(idataset.study
Study
p200
(dp201
g7
I45
sg8
(dp202
g10
F0.01247861
sg17
I71
sg20
F0.2557075
ssg15
S'study label 46'
p203
sbsI46
(idataset.study
Study
p204
(dp205
g7
I46
sg8
(dp206
g10
F0.007846697
sg17
I111
sg20
F0.266361608
ssg15
S'study label 47'
p207
sbsI47
(idataset.study
Study
p208
(dp209
g7
I47
sg8
(dp210
g10
F0.003223902
sg17
I229
sg20
F0.377689832
ssg15
S'study label 48'
p211
sbsI48
(idataset.study
Study
p212
(dp213
g7
I48
sg8
(dp214
g10
F0.003053202
sg17
I242
sg20
F0.377093453
ssg15
S'study label 49'
p215
sbsI49
(idataset.study
Study
p216
(dp217
g7
I49
sg8
(dp218
g10
F0.010640497
sg17
I84
sg20
F0.245424913
ssg15
S'study label 50'
p219
sbsI50
(idataset.study
Study
p220
(dp221
g7
I50
sg8
(dp222
g10
F0.011224413
sg17
I86
sg20
F0.152421443
ssg15
S'study label 51'
p223
sbsI51
(idataset.study
Study
p224
(dp225
g7
I51
sg8
(dp226
g10
F0.017828929
sg17
I41
sg20
F0.394352217
ssg15
S'study label 52'
p227
sbsI52
(idataset.study
Study
p228
(dp229
g7
I52
sg8
(dp230
g10
F0.015414671
sg17
I60
sg20
F0.215269482
ssg15
S'study label 53'
p231
sbsI53
(idataset.study
Study
p232
(dp233
g7
I53
sg8
(dp234
g10
F0.017461884
sg17
I44
sg20
F0.365345905
ssg15
S'study label 54'
p235
sbsI54
(idataset.study
Study
p236
(dp237
g7
I54
sg8
(dp238
g10
F0.007059981
sg17
I118
sg20
F0.301902019
ssg15
S'study label 55'
p239
sbsI55
(idataset.study
Study
p240
(dp241
g7
I55
sg8
(dp242
g10
F0.00405098
sg17
I240
sg20
F0.126634986
ssg15
S'study label 56'
p243
sbsI56
(idataset.study
Study
p244
(dp245
g7
I56
sg8
(dp246
g10
F0.011429505
sg17
I58
sg20
F0.439153487
ssg15
S'study label 57'
p247
sbsI57
(idataset.study
Study
p248
(dp249
g7
I57
sg8
(dp250
g10
F0.004296281
sg17
I196
sg20
F0.291032036
ssg15
S'study label 58'
p251
sbsI58
(idataset.study
Study
p252
(dp253
g7
I58
sg8
(dp254
g10
F0.021362706
sg17
I41
sg20
F0.274961532
ssg15
S'study label 59'
p255
sbsI59
(idataset.study
Study
p256
(dp257
g7
I59
sg8
(dp258
g10
F0.012026686
sg17
I57
sg20
F0.423477194
ssg15
S'study label 60'
p259
sbsI60
(idataset.study
Study
p260
(dp261
g7
I60
sg8
(dp262
g10
F0.009195544
sg17
I98
sg20
F0.235710702
ssg15
S'study label 61'
p263
sbsI61
(idataset.study
Study
p264
(dp265
g7
I61
sg8
(dp266
g10
F0.010012586
sg17
I84
sg20
F0.297293615
ssg15
S'study label 62'
p267
sbsI62
(idataset.study
Study
p268
(dp269
g7
I62
sg8
(dp270
g10
F0.010802949
sg17
I78
sg20
F0.296571162
ssg15
S'study label 63'
p271
sbsI63
(idataset.study
Study
p272
(dp273
g7
I63
sg8
(dp274
g10
F0.010125912
sg17
I83
sg20
F0.297957025
ssg15
S'study label 64'
p275
sbsI64
(idataset.study
Study
p276
(dp277
g7
I64
sg8
(dp278
g10
F0.015758511
sg17
I54
sg20
F0.293439342
ssg15
S'study label 65'
p279
sbsI65
(idataset.study
Study
p280
(dp281
g7
I65
sg8
(dp282
g10
F0.009739335
sg17
I86
sg20
F0.300234828
ssg15
S'study label 66'
p283
sbsI66
(idataset.study
Study
p284
(dp285
g7
I66
sg8
(dp286
g10
F0.007670188
sg17
I106
sg20
F0.320274922
ssg15
S'study label 67'
p287
sbsI67
(idataset.study
Study
p288
(dp289
g7
I67
sg8
(dp290
g10
F0.014564942
sg17
I67
sg20
F0.139814023
ssg15
S'study label 68'
p291
sbsI68
(idataset.study
Study
p292
(dp293
g7
I68
sg8
(dp294
g10
F0.011425092
sg17
I76
sg20
F0.272618472
ssg15
S'study label 69'
p295
sbsI69
(idataset.study
Study
p296
(dp297
g7
I69
sg8
(dp298
g10
F0.007133926
sg17
I112
sg20
F0.331860825
ssg15
S'study label 70'
p299
sbsI70
(idataset.study
Study
p300
(dp301
g7
I70
sg8
(dp302
g10
F0.009786758
sg17
I103
sg20
F0.029592308
ssg15
S'study label 71'
p303
sbsI71
(idataset.study
Study
p304
(dp305
g7
I71
sg8
(dp306
g10
F0.011063464
sg17
I79
sg20
F0.266549972
ssg15
S'study label 72'
p307
sbsI72
(idataset.study
Study
p308
(dp309
g7
I72
sg8
(dp310
g10
F0.004589678
sg17
I187
sg20
F0.275775005
ssg15
S'study label 73'
p311
sbsI73
(idataset.study
Study
p312
(dp313
g7
I73
sg8
(dp314
g10
F0.009492713
sg17
I93
sg20
F0.255888575
ssg15
S'study label 74'
p315
sbsI74
(idataset.study
Study
p316
(dp317
g7
I74
sg8
(dp318
g10
F0.008249802
sg17
I96
sg20
F0.338694662
ssg15
S'study label 75'
p319
sbsI75
(idataset.study
Study
p320
(dp321
g7
I75
sg8
(dp322
g10
F0.019104788
sg17
I47
sg20
F0.250091707
ssg15
S'study label 76'
p323
sbsI76
(idataset.study
Study
p324
(dp325
g7
I76
sg8
(dp326
g10
F0.005573425
sg17
I163
sg20
F0.223141687
ssg15
S'study label 77'
p327
sbsI77
(idataset.study
Study
p328
(dp329
g7
I77
sg8
(dp330
g10
F0.003510727
sg17
I229
sg20
F0.324536035
ssg15
S'study label 78'
p331
sbsI78
(idataset.study
Study
p332
(dp333
g7
I78
sg8
(dp334
g10
F0.014984581
sg17
I60
sg20
F0.244416143
ssg15
S'study label 79'
p335
sbsI79
(idataset.study
Study
p336
(dp337
g7
I79
sg8
(dp338
g10
F0.010043816
sg17
I97
sg20
F0.134387143
ssg15
S'study label 80'
p339
sbsI80
(idataset.study
Study
p340
(dp341
g7
I80
sg8
(dp342
g10
F0.020809974
sg17
I47
sg20
F0.146982837
ssg15
S'study label 81'
p343
sbsI81
(idataset.study
Study
p344
(dp345
g7
I81
sg8
(dp346
g10
F0.003595715
sg17
I189
sg20
F0.421676602
ssg15
S'study label 82'
p347
sbsI82
(idataset.study
Study
p348
(dp349
g7
I82
sg8
(dp350
g10
F0.016814473
sg17
I54
sg20
F0.236608408
ssg15
S'study label 83'
p351
sbsI83
(idataset.study
Study
p352
(dp353
g7
I83
sg8
(dp354
g10
F0.009052517
sg17
I109
sg20
F0.105958044
ssg15
S'study label 84'
p355
sbsI84
(idataset.study
Study
p356
(dp357
g7
I84
sg8
(dp358
g10
F0.014032017
sg17
I46
sg20
F0.453174952
ssg15
S'study label 85'
p359
sbsI85
(idataset.study
Study
p360
(dp361
g7
I85
sg8
(dp362
g10
F0.008081517
sg17
I109
sg20
F0.256437724
ssg15
S'study label 86'
p363
sbsI86
(idataset.study
Study
p364
(dp365
g7
I86
sg8
(dp366
g10
F0.005190192
sg17
I146
sg20
F0.363988393
ssg15
S'study label 87'
p367
sbsI87
(idataset.study
Study
p368
(dp369
g7
I87
sg8
(dp370
g10
F0.007871853
sg17
I111
sg20
F0.263553561
ssg15
S'study label 88'
p371
sbsI88
(idataset.study
Study
p372
(dp373
g7
I88
sg8
(dp374
g10
F0.00696897
sg17
I92
sg20
F0.451273894
ssg15
S'study label 89'
p375
sbsI89
(idataset.study
Study
p376
(dp377
g7
I89
sg8
(dp378
g10
F0.0090314
sg17
I85
sg20
F0.359168445
ssg15
S'study label 90'
p379
sbsI90
(idataset.study
Study
p380
(dp381
g7
I90
sg8
(dp382
g10
F0.013463654
sg17
I54
sg20
F0.394039486
ssg15
S'study label 91'
p383
sbsI91
(idataset.study
Study
p384
(dp385
g7
I91
sg8
(dp386
g10
F0.012602923
sg17
I50
sg20
F0.462775113
ssg15
S'study label 92'
p387
sbsI92
(idataset.study
Study
p388
(dp389
g7
I92
sg8
(dp390
g10
F0.009654563
sg17
I87
sg20
F0.297986878
ssg15
S'study label 93'
p391
sbsI93
(idataset.study
Study
p392
(dp393
g7
I93
sg8
(dp394
g10
F0.009991322
sg17
I82
sg20
F0.316844753
ssg15
S'study label 94'
p395
sbsI94
(idataset.study
Study
p396
(dp397
g7
I94
sg8
(dp398
g10
F0.004883791
sg17
I193
sg20
F0.177924634
ssg15
S'study label 95'
p399
sbsI95
(idataset.study
Study
p400
(dp401
g7
I95
sg8
(dp402
g10
F0.006086932
sg17
I141
sg20
F0.277252993
ssg15
S'study label 96'
p403
sbsI96
(idataset.study
Study
p404
(dp405
g7
I96
sg8
(dp406
g10
F0.021721806
sg17
I40
sg20
F0.282120994
ssg15
S'study label 97'
p407
sbsI97
(idataset.study
Study
p408
(dp409
g7
I97
sg8
(dp410
g10
F0.009979969
sg17
I84
sg20
F0.299782482
ssg15
S'study label 98'
p411
sbsI98
(idataset.study
Study
p412
(dp413
g7
I98
sg8
(dp414
g10
F0.005140155
sg17
I145
sg20
F0.373713129
ssg15
S'study label 99'
p415
sbsI99
(idataset.study
Study
p416
(dp417
g7
I99
sg8
(dp418
g10
F0.009460106
sg17
I70
sg20
F0.438260456
ssg15
S'study label 100'
p419
sbssS'conf_level'
p420
I95
sS'dirty'
p421
I01
sS'variable_groups'
p422
(lp423
sS'last_analysis_selections'
p424
(dp425
S'bootstrap_params'
p426
NsS'fixed_effects'
p427
NsS'included_covariates'
p428
NsS'data_type'
p429
NsS'funnel_params'
p430
NsS'included_studies'
p431
NsS'data_locations'
p432
(dp433
I0
(dp434
sI1
(dp435
sI3
(dp436
ssS'cov_2_ref_values'
p437
NsS'method'
p438
NsS'analysis_type'
p439
I0
sg420
NsS'selected_cov'
p440
NsS'knha'
p441
I00
sS'failsafe_parameters'
p442
NsS'covs_to_values'
p443
NsS'random_effects_method'
p444
S'REML'
p445
sS'phylogen'
p446
I00
sS'metric'
p447
NsS'ma_param_vals'
p448
NsS'subgroup_variable'
p449
NssS'dataset'
p450
(idataset.ee_dataset
EEDataSet
p451
(dp452
S'variable_collection'
p453
ccopy_reg
_reconstructor
p454
(cdataset.variable_collection
VariableCollection
p455
c__builtin__
object
p456
Ntp457
Rp458
(dp459
S'item_class'
p460
cdataset.variable
Variable
p461
sS'ids_to_items'
p462
(dp463
I0
g20
sI1
g10
sI2
g17
ssbsS'study_collection'
p464
g454
(cdataset.study_collection
StudyCollection
p465
g456
Ntp466
Rp467
(dp468
g460
cdataset.study
Study
p469
sg462
(dp470
I0
g5
sI1
g24
sI2
g28
sI3
g32
sI4
g36
sI5
g40
sI6
g44
sI7
g48
sI8
g52
sI9
g56
sI10
g60
sI11
g64
sI12
g68
sI13
g72
sI14
g76
sI15
g80
sI16
g84
sI17
g88
sI18
g92
sI19
g96
sI20
g100
sI21
g104
sI22
g108
sI23
g112
sI24
g116
sI25
g120
sI26
g124
sI27
g128
sI28
g132
sI29
g136
sI30
g140
sI31
g144
sI32
g148
sI33
g152
sI34
g156
sI35
g160
sI36
g164
sI37
g168
sI38
g172
sI39
g176
sI40
g180
sI41
g184
sI42
g188
sI43
g192
sI44
g196
sI45
g200
sI46
g204
sI47
g208
sI48
g212
sI49
g216
sI50
g220
sI51
g224
sI52
g228
sI53
g232
sI54
g236
sI55
g240
sI56
g244
sI57
g248
sI58
g252
sI59
g256
sI60
g260
sI61
g264
sI62
g268
sI63
g272
sI64
g276
sI65
g280
sI66
g284
sI67
g288
sI68
g292
sI69
g296
sI70
g300
sI71
g304
sI72
g308
sI73
g312
sI74
g316
sI75
g320
sI76
g324
sI77
g328
sI78
g332
sI79
g336
sI80
g340
sI81
g344
sI82
g348
sI83
g352
sI84
g356
sI85
g360
sI86
g364
sI87
g368
sI88
g372
sI89
g376
sI90
g380
sI91
g384
sI92
g388
sI93
g392
sI94
g396
sI95
g400
sI96
g404
sI97
g408
sI98
g412
sI99
g416
ssbsbsS'cols_2_vars'
p471
(dp472
I0
g20
sI1
g10
sI2
g17
ssS'label_column_name_label'
p473
S'D'
p474
sb.