(iee_model
ModelState
p0
(dp1
S'label_column'
p2
I3
sS'rows_2_studies'
p3
(dp4
I0
(idataset.study
Study
p5
(dp6
S'study_id'
p7
I0
sS'variables'
p8
(dp9
(idataset.variable
Variable
p10
(dp11
S'var_id'
p12
I11
sS'sub_type'
p13
NsS'var_type'
p14
I1
sS'label'
p15
S'x out'
p16
sbF0.003
s(idataset.variable
Variable
p17
(dp18
g12
I0
sg13
Nsg14
I0
sg15
S'species'
p19
sbS'Chrysoblephus cristiceps'
p20
s(idataset.variable
Variable
p21
(dp22
g12
I12
sg13
Nsg14
I1
sg15
S'x in'
p23
sbF0.004
s(idataset.variable
Variable
p24
(dp25
g12
I1
sg13
Nsg14
I0
sg15
S'genus'
p26
sbS'Chrysoblephus '
p27
s(idataset.variable
Variable
p28
(dp29
g12
I16
sg13
I1
sg14
I1
sg15
S'Var(d)'
p30
sbF0.044982760441759834
s(idataset.variable
Variable
p31
(dp32
g12
I13
sg13
Nsg14
I1
sg15
S's out'
p33
sbF0.006
s(idataset.variable
Variable
p34
(dp35
g12
I6
sg13
Nsg14
I0
sg15
S'totalarea'
p36
sbS'55200'
p37
s(idataset.variable
Variable
p38
(dp39
g12
I14
sg13
Nsg14
I1
sg15
S's in'
p40
sbF0.006
s(idataset.variable
Variable
p41
(dp42
g12
I7
sg13
Nsg14
I0
sg15
S'Fished?'
p43
sbS'Y'
p44
s(idataset.variable
Variable
p45
(dp46
g12
I8
sg13
Nsg14
I0
sg15
S'family'
p47
sbS'Spari'
p48
s(idataset.variable
Variable
p49
(dp50
g12
I9
sg13
Nsg14
I2
sg15
S'n out'
p51
sbI38
s(idataset.variable
Variable
p52
(dp53
g12
I15
sg13
I0
sg14
I1
sg15
S'd'
p54
sbF-0.16527326074870163
s(idataset.variable
Variable
p55
(dp56
g12
I4
sg13
Nsg14
I0
sg15
S'method'
p57
sbS'point'
p58
s(idataset.variable
Variable
p59
(dp60
g12
I5
sg13
Nsg14
I0
sg15
S'area'
p61
sbS'1200'
p62
s(idataset.variable
Variable
p63
(dp64
g12
I10
sg13
Nsg14
I2
sg15
S'n in'
p65
sbI54
s(idataset.variable
Variable
p66
(dp67
g12
I2
sg13
Nsg14
I0
sg15
S'L (cm)'
p68
sbS'75'
p69
ssg15
S'Buxton'
p70
sbsI1
(idataset.study
Study
p71
(dp72
g7
I1
sg8
(dp73
g10
F0.006
sg17
S'Chrysoblephus laticeps'
p74
sg21
F0.025
sg24
S'Chrysoblephus '
p75
sg28
F0.05006898030160014
sg31
F0.007
sg34
S'68400'
p76
sg38
F0.014
sg41
S'Y'
p77
sg45
S'Spari'
p78
sg49
I38
sg52
F-1.5542610812745818
sg55
S'point'
p79
sg59
S'1200'
p80
sg63
I76
sg66
S'50'
p81
ssg15
S'Buxton-2'
p82
sbsI2
(idataset.study
Study
p83
(dp84
g7
I2
sg8
(dp85
g10
F0.001
sg17
S'Petrus rupestris'
p86
sg21
F0.013
sg24
S'Petrus '
p87
sg28
F0.05467195666917915
sg31
F0.002
sg34
S'56400'
p88
sg38
F0.013
sg41
S'Y'
p89
sg45
S'Spari'
p90
sg49
I31
sg52
F-1.1089115116394266
sg55
S'point'
p91
sg59
S'1200'
p92
sg63
I63
sg66
S'200'
p93
ssg15
S'Buxton-3'
p94
sbsI3
(idataset.study
Study
p95
(dp96
g7
I3
sg8
(dp97
g10
F0.1
sg17
S'Abudefduf saxatilis'
p98
sg21
F0.77
sg24
S'Abudefduf '
p99
sg34
S'12000'
p100
sg45
S'Pomac'
p101
sg49
I30
sg55
S'line'
p102
sg59
S'400'
p103
sg63
I30
sg66
S'15'
p104
ssg15
S'Chapm'
p105
sbsI4
(idataset.study
Study
p106
(dp107
g7
I4
sg8
(dp108
g10
F15.07
sg17
S'Acanthurus bahianus'
p109
sg21
F22.6
sg24
S'Acanthurus '
p110
sg34
S'12000'
p111
sg45
S'Acant'
p112
sg49
I30
sg55
S'line'
p113
sg59
S'400'
p114
sg63
I30
sg66
S'35'
p115
ssg15
S'Chapm-2'
p116
sbsI5
(idataset.study
Study
p117
(dp118
g7
I5
sg8
(dp119
g10
F2.27
sg17
S'Acanthurus coeruleus'
p120
sg21
F6.8
sg24
S'Acanthurus '
p121
sg34
S'12000'
p122
sg45
S'Acant'
p123
sg49
I30
sg55
S'line'
p124
sg59
S'400'
p125
sg63
I30
sg66
S'23'
p126
ssg15
S'Chapm-3'
p127
sbsI6
(idataset.study
Study
p128
(dp129
g7
I6
sg8
(dp130
g10
F0.2
sg17
S'Bodianus rufus'
p131
sg21
F0.37
sg24
S'Bodianus '
p132
sg34
S'12000'
p133
sg45
S'Labri'
p134
sg49
I30
sg55
S'line'
p135
sg59
S'400'
p136
sg63
I30
sg66
S'40'
p137
ssg15
S'Chapm-4'
p138
sbsI7
(idataset.study
Study
p139
(dp140
g7
I7
sg8
(dp141
g10
F0.53
sg17
S'Cantherhines pullus'
p142
sg21
F0.97
sg24
S'Cantherhines '
p143
sg34
S'12000'
p144
sg45
S'Balis'
p145
sg49
I30
sg55
S'line'
p146
sg59
S'400'
p147
sg63
I30
sg66
S'20'
p148
ssg15
S'Chapm-5'
p149
sbsI8
(idataset.study
Study
p150
(dp151
g7
I8
sg8
(dp152
g10
F0.17
sg17
S'Caranx ruber'
p153
sg21
F0.87
sg24
S'Caranx '
p154
sg34
S'12000'
p155
sg45
S'Caran'
p156
sg49
I30
sg55
S'line'
p157
sg59
S'400'
p158
sg63
I30
sg66
S'69'
p159
ssg15
S'Chapm-6'
p160
sbsI9
(idataset.study
Study
p161
(dp162
g7
I9
sg8
(dp163
g10
F0.33
sg17
S'Chaetodon striatus'
p164
sg21
F0.6
sg24
S'Chaetodon '
p165
sg34
S'12000'
p166
sg45
S'Chaet'
p167
sg49
I30
sg55
S'line'
p168
sg59
S'400'
p169
sg63
I30
sg66
S'16'
p170
ssg15
S'Chapm-7'
p171
sbsI10
(idataset.study
Study
p172
(dp173
g7
I10
sg8
(dp174
g10
F0.63
sg17
S'Epinephelus cruentata'
p175
sg21
F0.27
sg24
S'Epinephelus '
p176
sg34
S'12000'
p177
sg45
S'Serra'
p178
sg49
I30
sg55
S'line'
p179
sg59
S'400'
p180
sg63
I30
sg66
S'35'
p181
ssg15
S'Chapm-8'
p182
sbsI11
(idataset.study
Study
p183
(dp184
g7
I11
sg8
(dp185
g10
F0.97
sg17
S'Epinephelus fulvus'
p186
sg21
F0.63
sg24
S'Epinephelus '
p187
sg34
S'12000'
p188
sg45
S'Serra'
p189
sg49
I30
sg55
S'line'
p190
sg59
S'400'
p191
sg63
I30
sg66
S'41'
p192
ssg15
S'Chapm-9'
p193
sbsI12
(idataset.study
Study
p194
(dp195
g7
I12
sg8
(dp196
g10
F0.33
sg17
S'Holocanthus tricolor'
p197
sg21
F0.57
sg24
S'Holocanthus '
p198
sg34
S'12000'
p199
sg45
S'Pomaa'
p200
sg55
S'line'
p201
sg59
S'400'
p202
sg63
I30
sg49
I30
ssg15
S'Chapm-10'
p203
sbsI13
(idataset.study
Study
p204
(dp205
g7
I13
sg8
(dp206
g10
F0.8
sg17
S'Holocentrus rufus'
p207
sg21
F1.53
sg24
S'Holocentrus '
p208
sg34
S'12000'
p209
sg45
S'Holoc'
p210
sg49
I30
sg55
S'line'
p211
sg59
S'400'
p212
sg63
I30
sg66
S'35'
p213
ssg15
S'Chapm-11'
p214
sbsI14
(idataset.study
Study
p215
(dp216
g7
I14
sg8
(dp217
g10
F0.03
sg17
S'Kyphosus sectatrix'
p218
sg21
F0.6
sg24
S'Labrichthys '
p219
sg34
S'12000'
p220
sg45
S'Kypho'
p221
sg49
I30
sg55
S'line'
p222
sg59
S'400'
p223
sg63
I30
sg66
S'76'
p224
ssg15
S'Chapm-12'
p225
sbsI15
(idataset.study
Study
p226
(dp227
g7
I15
sg8
(dp228
g10
F0.3
sg17
S'Lactrophrys triqueter'
p229
sg21
F0.37
sg24
S'Lactrophrys '
p230
sg34
S'12000'
p231
sg45
S'Ostra'
p232
sg49
I30
sg55
S'line'
p233
sg59
S'400'
p234
sg63
I30
sg66
S'47'
p235
ssg15
S'Chapm-13'
p236
sbsI16
(idataset.study
Study
p237
(dp238
g7
I16
sg8
(dp239
g10
F13.5
sg17
S'Microspathodon chrysurus'
p240
sg21
F13.2
sg24
S'Microspathodon '
p241
sg34
S'12000'
p242
sg45
S'Pomac'
p243
sg49
I30
sg55
S'line'
p244
sg59
S'400'
p245
sg63
I30
sg66
S'21'
p246
ssg15
S'Chapm-14'
p247
sbsI17
(idataset.study
Study
p248
(dp249
g7
I17
sg8
(dp250
g10
F1.57
sg17
S'Mulloidichthys martinicus'
p251
sg21
F4.77
sg24
S'Mulloidichthys '
p252
sg34
S'12000'
p253
sg45
S'Mulli'
p254
sg49
I30
sg55
S'line'
p255
sg59
S'400'
p256
sg63
I30
sg66
S'40'
p257
ssg15
S'Chapm-15'
p258
sbsI18
(idataset.study
Study
p259
(dp260
g7
I18
sg8
(dp261
g10
F3.07
sg17
S'Myripristis jacobus'
p262
sg21
F2.53
sg24
S'Myripristis '
p263
sg34
S'12000'
p264
sg45
S'Holoc'
p265
sg49
I30
sg55
S'line'
p266
sg59
S'400'
p267
sg63
I30
sg66
S'25'
p268
ssg15
S'Chapm-16'
p269
sbsI19
(idataset.study
Study
p270
(dp271
g7
I19
sg8
(dp272
g10
F0.2
sg17
S'Scarus iserti'
p273
sg21
F2.37
sg24
S'Scarus '
p274
sg34
S'12000'
p275
sg45
S'Scari'
p276
sg49
I30
sg55
S'line'
p277
sg59
S'400'
p278
sg63
I30
sg66
S'35'
p279
ssg15
S'Chapm-17'
p280
sbsI20
(idataset.study
Study
p281
(dp282
g7
I20
sg8
(dp283
g10
F1.07
sg17
S'Scarus taeniopterus'
p284
sg21
F1.43
sg24
S'Scarus '
p285
sg34
S'12000'
p286
sg45
S'Scari'
p287
sg49
I30
sg55
S'line'
p288
sg59
S'400'
p289
sg63
I30
sg66
S'35'
p290
ssg15
S'Chapm-18'
p291
sbsI21
(idataset.study
Study
p292
(dp293
g7
I21
sg8
(dp294
g10
F0.17
sg17
S'Scarus vetula'
p295
sg21
F0.83
sg24
S'Scarus '
p296
sg34
S'12000'
p297
sg45
S'Scari'
p298
sg49
I30
sg55
S'line'
p299
sg59
S'400'
p300
sg63
I30
sg66
S'61'
p301
ssg15
S'Chapm-19'
p302
sbsI22
(idataset.study
Study
p303
(dp304
g7
I22
sg8
(dp305
g10
F0.87
sg17
S'Sparisoma aurofrenatum'
p306
sg21
F1.07
sg24
S'Sparisoma '
p307
sg34
S'12000'
p308
sg45
S'Scari'
p309
sg49
I30
sg55
S'line'
p310
sg59
S'400'
p311
sg63
I30
sg66
S'28'
p312
ssg15
S'Chapm-20'
p313
sbsI23
(idataset.study
Study
p314
(dp315
g7
I23
sg8
(dp316
g10
F0.1
sg17
S'Sparisoma rubripinne'
p317
sg21
F0.43
sg24
S'Sparisoma '
p318
sg34
S'12000'
p319
sg45
S'Scari'
p320
sg49
I30
sg55
S'line'
p321
sg59
S'400'
p322
sg63
I30
sg66
S'46'
p323
ssg15
S'Chapm-21'
p324
sbsI24
(idataset.study
Study
p325
(dp326
g7
I24
sg8
(dp327
g10
F0.87
sg17
S'Sparisoma viride'
p328
sg21
F1.2
sg24
S'Sparisoma '
p329
sg34
S'12000'
p330
sg45
S'Scari'
p331
sg49
I30
sg55
S'line'
p332
sg59
S'400'
p333
sg63
I30
sg66
S'54'
p334
ssg15
S'Chapm-22'
p335
sbsI25
(idataset.study
Study
p336
(dp337
g7
I25
sg8
(dp338
g10
F0.2
sg17
S'Haemulon carbonarium'
p339
sg21
F1.0
sg24
S'Haemulon '
p340
sg34
S'12000'
p341
sg45
S'Haemu'
p342
sg49
I30
sg55
S'line'
p343
sg59
S'400'
p344
sg63
I30
sg66
S'36'
p345
ssg15
S'Chapm-23'
p346
sbsI26
(idataset.study
Study
p347
(dp348
g7
I26
sg8
(dp349
g10
F2.67
sg17
S'Haemulon chrysargyreum'
p350
sg21
F15.6
sg24
S'Haemulon '
p351
sg34
S'12000'
p352
sg45
S'Haemu'
p353
sg49
I30
sg55
S'line'
p354
sg59
S'400'
p355
sg63
I30
sg66
S'23'
p356
ssg15
S'Chapm-24'
p357
sbsI27
(idataset.study
Study
p358
(dp359
g7
I27
sg8
(dp360
g10
F9.7
sg17
S'Haemulon flavolineatum'
p361
sg21
F23.17
sg24
S'Haemulon '
p362
sg34
S'12000'
p363
sg45
S'Haemu'
p364
sg49
I30
sg55
S'line'
p365
sg59
S'400'
p366
sg63
I30
sg66
S'30'
p367
ssg15
S'Chapm-25'
p368
sbsI28
(idataset.study
Study
p369
(dp370
g7
I28
sg8
(dp371
g10
F1.0
sg17
S'Lutjanus mahogani'
p372
sg21
F2.07
sg24
S'Lutjanus '
p373
sg34
S'12000'
p374
sg45
S'Lutja'
p375
sg49
I30
sg55
S'line'
p376
sg59
S'400'
p377
sg63
I30
sg66
S'38'
p378
ssg15
S'Chapm-26'
p379
sbsI29
(idataset.study
Study
p380
(dp381
g7
I29
sg8
(dp382
g10
F0.0
sg17
S'Anisotremus surinamensis'
p383
sg21
F0.11
sg24
S'Anisotremus '
p384
sg28
F0.014089127451161403
sg31
F0.0
sg38
F0.506
sg41
S'Y'
p385
sg45
S'Haemu'
p386
sg49
I130
sg52
F-0.2918140848813702
sg55
S'point'
p387
sg63
I160
sg66
S'65'
p388
ssg15
S'Clark'
p389
sbsI30
(idataset.study
Study
p390
(dp391
g7
I30
sg8
(dp392
g10
F0.05
sg17
S'Anisotremus virginicus'
p393
sg21
F0.11
sg24
S'Anisotremus '
p394
sg28
F0.013979811727264077
sg31
F0.228
sg38
F0.506
sg41
S'Y'
p395
sg45
S'Haemu'
p396
sg49
I130
sg52
F-0.1474867460984286
sg55
S'point'
p397
sg63
I160
sg66
S'18'
p398
ssg15
S'Clark-2'
p399
sbsI31
(idataset.study
Study
p400
(dp401
g7
I31
sg8
(dp402
g10
F0.0
sg17
S'Haemulon album'
p403
sg21
F0.17
sg24
S'Haemulon '
p404
sg28
F0.013964224484822528
sg31
F0.0
sg38
F2.024
sg41
S'Y'
p405
sg45
S'Haemu'
p406
sg49
I130
sg52
F-0.11274635097689303
sg55
S'point'
p407
sg63
I160
sg66
S'60'
p408
ssg15
S'Clark-3'
p409
sbsI32
(idataset.study
Study
p410
(dp411
g7
I32
sg8
(dp412
g10
F72.7
sg17
S'Haemulon aurolineatum'
p413
sg21
F34.0
sg24
S'Haemulon '
p414
sg28
F0.013996700451148042
sg31
F314.688
sg38
F72.1
sg41
S'N'
p415
sg45
S'Haemu'
p416
sg49
I130
sg52
F0.17761700404916694
sg55
S'point'
p417
sg63
I160
sg66
S'25'
p418
ssg15
S'Clark-4'
p419
sbsI33
(idataset.study
Study
p420
(dp421
g7
I33
sg8
(dp422
g10
F0.13
sg17
S'Haemulon macrostomum'
p423
sg21
F0.35
sg24
S'Haemulon '
p424
sg28
F0.014007275082882468
sg31
F0.684
sg38
F1.391
sg41
S'Y'
p425
sg45
S'Haemu'
p426
sg49
I130
sg52
F-0.19411616762487813
sg55
S'point'
p427
sg63
I160
sg66
S'43'
p428
ssg15
S'Clark-5'
p429
sbsI34
(idataset.study
Study
p430
(dp431
g7
I34
sg8
(dp432
g10
F0.0
sg17
S'Haemulon melanurum'
p433
sg21
F0.01
sg24
S'Haemulon '
p434
sg28
F0.013961876261829893
sg31
F0.0
sg38
F0.126
sg41
S'N'
p435
sg45
S'Haemu'
p436
sg49
I130
sg52
F-0.10653530082970655
sg55
S'point'
p437
sg63
I160
sg66
S'33'
p438
ssg15
S'Clark-6'
p439
sbsI35
(idataset.study
Study
p440
(dp441
g7
I35
sg8
(dp442
g10
F0.0
sg17
S'Haemulon parra'
p443
sg21
F0.33
sg24
S'Haemulon '
p444
sg28
F0.013995162805495029
sg31
F0.0
sg38
F2.53
sg41
S'Y'
p445
sg45
S'Haemu'
p446
sg49
I130
sg52
F-0.1750884509288221
sg55
S'point'
p447
sg63
I160
sg66
S'40'
p448
ssg15
S'Clark-7'
p449
sbsI36
(idataset.study
Study
p450
(dp451
g7
I36
sg8
(dp452
g10
F0.21
sg17
S'Haemulon plumieri'
p453
sg21
F0.85
sg24
S'Haemulon '
p454
sg28
F0.014116196497233616
sg31
F0.57
sg38
F2.656
sg41
S'Y'
p455
sg45
S'Haemu'
p456
sg49
I130
sg52
F-0.31757756038019325
sg55
S'point'
p457
sg63
I160
sg66
S'45'
p458
ssg15
S'Clark-8'
p459
sbsI37
(idataset.study
Study
p460
(dp461
g7
I37
sg8
(dp462
g10
F0.67
sg17
S'Haemulon sciurus'
p463
sg21
F1.86
sg24
S'Haemulon '
p464
sg28
F0.014052474460627304
sg31
F2.736
sg38
F5.819
sg41
S'Y'
p465
sg45
S'Haemu'
p466
sg49
I130
sg52
F-0.2527780164994071
sg55
S'point'
p467
sg63
I160
sg66
S'45'
p468
ssg15
S'Clark-9'
p469
sbsI38
(idataset.study
Study
p470
(dp471
g7
I38
sg8
(dp472
g10
F0.01
sg17
S'Lachnolaimus maximus'
p473
sg21
F0.19
sg24
S'Lachnolaimus '
p474
sg28
F0.01431989530597391
sg31
F0.114
sg38
F0.506
sg41
S'Y'
p475
sg45
S'Labri'
p476
sg49
I130
sg52
F-0.4679752300351008
sg55
S'point'
p477
sg63
I160
sg66
S'91'
p478
ssg15
S'Clark-10'
p479
sbsI39
(idataset.study
Study
p480
(dp481
g7
I39
sg8
(dp482
g10
F0.0
sg17
S'Lutjanus analis'
p483
sg21
F0.02
sg24
S'Lutjanus '
p484
sg28
F0.014020581970396493
sg31
F0.0
sg38
F0.126
sg41
S'Y'
p485
sg45
S'Lutja'
p486
sg49
I130
sg52
F-0.2130706016594131
sg55
S'point'
p487
sg63
I160
sg66
S'75'
p488
ssg15
S'Clark-11'
p489
sbsI40
(idataset.study
Study
p490
(dp491
g7
I40
sg8
(dp492
g10
F0.7
sg17
S'Lutjanus apodus'
p493
sg21
F0.81
sg24
S'Lutjanus '
p494
sg28
F0.01394556192944615
sg31
F2.166
sg38
F2.783
sg41
S'Y'
p495
sg45
S'Lutja'
p496
sg49
I130
sg52
F-0.043444879333529154
sg55
S'point'
p497
sg63
I160
sg66
S'60'
p498
ssg15
S'Clark-12'
p499
sbsI41
(idataset.study
Study
p500
(dp501
g7
I41
sg8
(dp502
g10
F0.04
sg17
S'Lutjanus griseus'
p503
sg21
F0.62
sg24
S'Lutjanus '
p504
sg28
F0.014025331281251588
sg31
F0.228
sg38
F3.542
sg41
S'Y'
p505
sg45
S'Lutja'
p506
sg49
I130
sg52
F-0.21943947135248715
sg55
S'point'
p507
sg63
I160
sg66
S'60'
p508
ssg15
S'Clark-13'
p509
sbsI42
(idataset.study
Study
p510
(dp511
g7
I42
sg8
(dp512
g10
F0.6
sg17
S'Lutjanus synagris'
p513
sg21
F1.59
sg24
S'Lutjanus '
p514
sg28
F0.013981995974220686
sg31
F6.727
sg38
F6.325
sg41
S'Y'
p515
sg45
S'Lutja'
p516
sg49
I130
sg52
F-0.1517208077672137
sg55
S'point'
p517
sg63
I160
sg66
S'36'
p518
ssg15
S'Clark-14'
p519
sbsI43
(idataset.study
Study
p520
(dp521
g7
I43
sg8
(dp522
g10
F3.84
sg17
S'Ocyurus chrysurus'
p523
sg21
F6.92
sg24
S'Ocyurus '
p524
sg28
F0.014098024561718485
sg31
F10.034
sg38
F10.372
sg41
S'Y'
p525
sg45
S'Lutja'
p526
sg49
I130
sg52
F-0.300525846239986
sg55
S'point'
p527
sg63
I160
sg66
S'75'
p528
ssg15
S'Clark-15'
p529
sbsI44
(idataset.study
Study
p530
(dp531
g7
I44
sg8
(dp532
g10
F0.05
sg17
S'Haemulon carbonarium'
p533
sg21
F2.2
sg24
S'Haemulon '
p534
sg28
F0.013982186745342608
sg31
F0.342
sg38
F18.974
sg41
S'Y'
p535
sg45
S'Haemu'
p536
sg49
I130
sg52
F-0.15208501162261479
sg55
S'point'
p537
sg63
I160
sg66
S'36'
p538
ssg15
S'Clark-16'
p539
sbsI45
(idataset.study
Study
p540
(dp541
g7
I45
sg8
(dp542
g10
F0.17
sg17
S'Haemulon chrysargyreum'
p543
sg21
F2.89
sg24
S'Haemulon '
p544
sg28
F0.01408386532780624
sg31
F1.71
sg38
F12.649
sg41
S'N'
p545
sg45
S'Haemu'
p546
sg49
I130
sg52
F-0.2865369585047571
sg55
S'point'
p547
sg63
I160
sg66
S'23'
p548
ssg15
S'Clark-17'
p549
sbsI46
(idataset.study
Study
p550
(dp551
g7
I46
sg8
(dp552
g10
F2.7
sg17
S'Haemulon flavolineatum'
p553
sg21
F1.6
sg24
S'Haemulon '
p554
sg28
F0.01409807539951308
sg31
F4.675
sg38
F2.53
sg41
S'N'
p555
sg45
S'Haemu'
p556
sg49
I130
sg52
F0.3005748994495786
sg55
S'point'
p557
sg63
I160
sg66
S'30'
p558
ssg15
S'Clark-18'
p559
sbsI47
(idataset.study
Study
p560
(dp561
g7
I47
sg8
(dp562
g10
F0.0
sg17
S'Lutjanus mahogani'
p563
sg21
F0.06
sg24
S'Lutjanus '
p564
sg28
F0.013985989604032764
sg31
F0.0
sg38
F0.506
sg41
S'Y'
p565
sg45
S'Lutja'
p566
sg49
I130
sg52
F-0.1591713190262019
sg55
S'point'
p567
sg63
I160
sg66
S'38'
p568
ssg15
S'Clark-19'
p569
sbsI48
(idataset.study
Study
p570
(dp571
g7
I48
sg8
(dp572
g10
F0.082
sg17
S'Chironemus marmoratus'
p573
sg21
F0.152
sg24
S'Chironemus '
p574
sg28
F0.03308150454089592
sg31
F0.101
sg34
S'8438'
p575
sg38
F0.125
sg41
S'N'
p576
sg45
S'Chiro'
p577
sg49
I50
sg52
F-0.5962680922258075
sg55
S'line'
p578
sg59
S'125'
p579
sg63
I85
sg66
S'40'
p580
ssg15
S'Cole'
p581
sbsI49
(idataset.study
Study
p582
(dp583
g7
I49
sg8
(dp584
g10
F6.399
sg17
S'Girella tricuspidata'
p585
sg21
F0.787
sg24
S'Girella '
p586
sg28
F0.03591336867819216
sg31
F8.52
sg34
S'8438'
p587
sg38
F1.293
sg41
S'Y'
p588
sg45
S'Girel'
p589
sg49
I50
sg52
F1.0583661723980928
sg55
S'line'
p590
sg59
S'125'
p591
sg63
I85
sg66
S'62'
p592
ssg15
S'Cole-2'
p593
sbsI50
(idataset.study
Study
p594
(dp595
g7
I50
sg8
(dp596
g10
F5.56
sg17
S'Notolabrus celidotus'
p597
sg21
F5.74
sg24
S'Notolabrus '
p598
sg28
F0.031791943181497945
sg31
F1.631
sg34
S'8438'
p599
sg38
F2.312
sg41
S'N'
p600
sg45
S'Labri'
p601
sg49
I50
sg52
F-0.08575587891888267
sg55
S'line'
p602
sg59
S'125'
p603
sg63
I85
sg66
S'24'
p604
ssg15
S'Cole-3'
p605
sbsI51
(idataset.study
Study
p606
(dp607
g7
I51
sg8
(dp608
g10
F0.061
sg17
S'Notolabrus fucicola'
p609
sg21
F0.271
sg24
S'Notolabrus '
p610
sg28
F0.036459051156096545
sg31
F0.102
sg34
S'8438'
p611
sg38
F0.22
sg41
S'N'
p612
sg45
S'Labri'
p613
sg49
I50
sg52
F-1.1258211331782562
sg55
S'line'
p614
sg59
S'125'
p615
sg63
I85
sg66
S'30'
p616
ssg15
S'Cole-4'
p617
sbsI52
(idataset.study
Study
p618
(dp619
g7
I52
sg8
(dp620
g10
F0.0
sg17
S'Odax pullus'
p621
sg21
F0.318
sg24
S'Odax '
p622
sg28
F0.03459686264637564
sg31
F0.0
sg34
S'8438'
p623
sg38
F0.455
sg41
S'N'
p624
sg45
S'Odaci'
p625
sg49
I50
sg52
F-0.8744611633949945
sg55
S'line'
p626
sg59
S'125'
p627
sg63
I85
sg66
S'40'
p628
ssg15
S'Cole-5'
p629
sbsI53
(idataset.study
Study
p630
(dp631
g7
I53
sg8
(dp632
g10
F0.82
sg17
S'Pagrus auratus'
p633
sg21
F0.964
sg24
S'Pagrus '
p634
sg28
F0.03186244280016119
sg31
F0.68
sg34
S'8438'
p635
sg38
F0.98
sg41
S'Y'
p636
sg45
S'Spari'
p637
sg49
I50
sg52
F-0.1624468153218974
sg55
S'line'
p638
sg59
S'125'
p639
sg63
I85
sg66
S'130'
p640
ssg15
S'Cole-6'
p641
sbsI54
(idataset.study
Study
p642
(dp643
g7
I54
sg8
(dp644
g10
F0.779
sg17
S'Parapercis colias'
p645
sg21
F0.94
sg24
S'Parapercis '
p646
sg28
F0.03209275084917582
sg31
F0.482
sg34
S'8438'
p647
sg38
F0.568
sg41
S'Y'
p648
sg45
S'Pingu'
p649
sg49
I50
sg52
F-0.2976107206438923
sg55
S'line'
p650
sg59
S'125'
p651
sg63
I85
sg66
S'45'
p652
ssg15
S'Cole-7'
p653
sbsI55
(idataset.study
Study
p654
(dp655
g7
I55
sg8
(dp656
g10
F6.081
sg17
S'Upeneichthys lineatus'
p657
sg21
F2.422
sg24
S'Upeneichthys '
p658
sg28
F0.03681985843465213
sg31
F4.067
sg34
S'8438'
p659
sg38
F2.389
sg41
S'Y'
p660
sg45
S'Mulli'
p661
sg49
I50
sg52
F1.1682855768692775
sg55
S'line'
p662
sg59
S'125'
p663
sg63
I85
sg66
S'35'
p664
ssg15
S'Cole-8'
p665
sbsI56
(idataset.study
Study
p666
(dp667
g7
I56
sg8
(dp668
g10
F0.1
sg17
S'Cheilodactylus spectabilis'
p669
sg21
F0.669
sg24
S'Cheilodactylus '
p670
sg28
F0.0750008771816282
sg31
F0.112
sg34
S'8438'
p671
sg38
F0.19
sg41
S'Y'
p672
sg45
S'Cheil'
p673
sg49
I50
sg52
F-3.416689369960974
sg55
S'line'
p674
sg59
S'125'
p675
sg63
I85
sg66
S'100'
p676
ssg15
S'Cole-9'
p677
sbsI57
(idataset.study
Study
p678
(dp679
g7
I57
sg8
(dp680
g10
F0.46
sg17
S'Parika scaber'
p681
sg21
F0.295
sg24
S'Parika '
p682
sg28
F0.03326102274125188
sg31
F0.373
sg34
S'8438'
p683
sg38
F0.156
sg41
S'N'
p684
sg45
S'Monac'
p685
sg49
I50
sg52
F0.6356143106497157
sg55
S'line'
p686
sg59
S'125'
p687
sg63
I85
sg66
S'31'
p688
ssg15
S'Cole-10'
p689
sbsI58
(idataset.study
Study
p690
(dp691
g7
I58
sg8
(dp692
g10
F39.25
sg17
S'Atherina boyeri'
p693
sg21
F19.05
sg24
S'Atherina '
p694
sg34
S'1200'
p695
sg41
S'N'
p696
sg45
S'Ather'
p697
sg49
I6
sg55
S'line'
p698
sg59
S'200'
p699
sg63
I6
sg66
S'13'
p700
ssg15
S'Dufou'
p701
sbsI59
(idataset.study
Study
p702
(dp703
g7
I59
sg8
(dp704
g10
F0.15
sg17
S'Conger conger'
p705
sg21
F0.0
sg24
S'Conger '
p706
sg34
S'1200'
p707
sg41
S'Y'
p708
sg45
S'Murae'
p709
sg55
S'line'
p710
sg59
S'200'
p711
sg63
I6
sg49
I6
ssg15
S'Dufou-2'
p712
sbsI60
(idataset.study
Study
p713
(dp714
g7
I60
sg8
(dp715
g10
F2.25
sg17
S'Gobius auratus'
p716
sg21
F1.0
sg24
S'Gobius '
p717
sg34
S'1200'
p718
sg41
S'N'
p719
sg45
S'Gobii'
p720
sg49
I6
sg55
S'line'
p721
sg59
S'200'
p722
sg63
I6
sg66
S'10'
p723
ssg15
S'Dufou-3'
p724
sbsI61
(idataset.study
Study
p725
(dp726
g7
I61
sg8
(dp727
g10
F0.35
sg17
S'Gobius geniporus'
p728
sg21
F0.0
sg24
S'Gobius '
p729
sg34
S'1200'
p730
sg41
S'N'
p731
sg45
S'Gobii'
p732
sg49
I6
sg55
S'line'
p733
sg59
S'200'
p734
sg63
I6
sg66
S'16'
p735
ssg15
S'Dufou-4'
p736
sbsI62
(idataset.study
Study
p737
(dp738
g7
I62
sg8
(dp739
g10
F3.8
sg17
S'Gobius vittatus'
p740
sg21
F0.9
sg24
S'Gobius '
p741
sg34
S'1200'
p742
sg41
S'N'
p743
sg45
S'Gobii'
p744
sg49
I6
sg55
S'line'
p745
sg59
S'200'
p746
sg63
I6
sg66
S'6'
p747
ssg15
S'Dufou-5'
p748
sbsI63
(idataset.study
Study
p749
(dp750
g7
I63
sg8
(dp751
g10
F0.55
sg17
S'Parablennius gattorugine'
p752
sg21
F0.05
sg24
S'Parablennius '
p753
sg34
S'1200'
p754
sg41
S'N'
p755
sg45
S'Blenn'
p756
sg49
I6
sg55
S'line'
p757
sg59
S'200'
p758
sg63
I6
sg66
S'30'
p759
ssg15
S'Dufou-6'
p760
sbsI64
(idataset.study
Study
p761
(dp762
g7
I64
sg8
(dp763
g10
F0.7
sg17
S'Parablennius rouxi'
p764
sg21
F0.7
sg24
S'Parablennius '
p765
sg34
S'1200'
p766
sg41
S'N'
p767
sg45
S'Blenn'
p768
sg49
I6
sg55
S'line'
p769
sg59
S'200'
p770
sg63
I6
sg66
S'8'
p771
ssg15
S'Dufou-7'
p772
sbsI65
(idataset.study
Study
p773
(dp774
g7
I65
sg8
(dp775
g10
F0.5
sg17
S'Thorogobius ephippiatus'
p776
sg21
F0.3
sg24
S'Thorogobius '
p777
sg34
S'1200'
p778
sg41
S'N'
p779
sg45
S'Gobii'
p780
sg49
I6
sg55
S'line'
p781
sg59
S'200'
p782
sg63
I6
sg66
S'13'
p783
ssg15
S'Dufou-8'
p784
sbsI66
(idataset.study
Study
p785
(dp786
g7
I66
sg8
(dp787
g10
F1.5
sg17
S'Tripterygion delaisi'
p788
sg21
F1.3
sg24
S'Tripterygion '
p789
sg34
S'1200'
p790
sg41
S'N'
p791
sg45
S'Blenn'
p792
sg49
I6
sg55
S'line'
p793
sg59
S'200'
p794
sg63
I6
sg66
S'9'
p795
ssg15
S'Dufou-9'
p796
sbsI67
(idataset.study
Study
p797
(dp798
g7
I67
sg8
(dp799
g10
F0.15
sg17
S'Trisopterus minutus'
p800
sg21
F0.0
sg24
S'Trisopterus '
p801
sg34
S'1200'
p802
sg41
S'N'
p803
sg45
S'Gadid'
p804
sg49
I6
sg55
S'line'
p805
sg59
S'200'
p806
sg63
I6
sg66
S'40'
p807
ssg15
S'Dufou-10'
p808
sbsI68
(idataset.study
Study
p809
(dp810
g7
I68
sg8
(dp811
g10
F146.55
sg17
S'Chromis chromis'
p812
sg21
F126.9
sg24
S'Chromis '
p813
sg34
S'1200'
p814
sg41
S'N'
p815
sg45
S'Pomac'
p816
sg49
I6
sg55
S'line'
p817
sg59
S'200'
p818
sg63
I6
sg66
S'15'
p819
ssg15
S'Dufou-11'
p820
sbsI69
(idataset.study
Study
p821
(dp822
g7
I69
sg8
(dp823
g10
F18.8
sg17
S'Ctenolabrus rupestris'
p824
sg21
F11.95
sg24
S'Ctenolabrus '
p825
sg34
S'1200'
p826
sg41
S'N'
p827
sg45
S'Labri'
p828
sg49
I6
sg55
S'line'
p829
sg59
S'200'
p830
sg63
I6
sg66
S'18'
p831
ssg15
S'Dufou-12'
p832
sbsI70
(idataset.study
Study
p833
(dp834
g7
I70
sg8
(dp835
g10
F0.0
sg17
S'Diplodus puntazzo'
p836
sg21
F0.1
sg24
S'Diplodus '
p837
sg34
S'1200'
p838
sg41
S'Y'
p839
sg45
S'Spari'
p840
sg49
I6
sg55
S'line'
p841
sg59
S'200'
p842
sg63
I6
sg66
S'60'
p843
ssg15
S'Dufou-13'
p844
sbsI71
(idataset.study
Study
p845
(dp846
g7
I71
sg8
(dp847
g10
F8.0
sg17
S'Diplodus sargus'
p848
sg21
F4.7
sg24
S'Diplodus '
p849
sg34
S'1200'
p850
sg41
S'Y'
p851
sg45
S'Spari'
p852
sg49
I6
sg55
S'line'
p853
sg59
S'200'
p854
sg63
I6
sg66
S'45'
p855
ssg15
S'Dufou-14'
p856
sbsI72
(idataset.study
Study
p857
(dp858
g7
I72
sg8
(dp859
g10
F6.05
sg17
S'Diplodus vulgaris'
p860
sg21
F10.75
sg24
S'Diplodus '
p861
sg34
S'1200'
p862
sg41
S'Y'
p863
sg45
S'Spari'
p864
sg49
I6
sg55
S'line'
p865
sg59
S'200'
p866
sg63
I6
sg66
S'45'
p867
ssg15
S'Dufou-15'
p868
sbsI73
(idataset.study
Study
p869
(dp870
g7
I73
sg8
(dp871
g10
F1.05
sg17
S'Gobius cruentatus'
p872
sg21
F0.05
sg24
S'Gobius '
p873
sg34
S'1200'
p874
sg41
S'N'
p875
sg45
S'Gobii'
p876
sg49
I6
sg55
S'line'
p877
sg59
S'200'
p878
sg63
I6
sg66
S'18'
p879
ssg15
S'Dufou-16'
p880
sbsI74
(idataset.study
Study
p881
(dp882
g7
I74
sg8
(dp883
g10
F0.05
sg17
S'Labrus bimaculatus'
p884
sg21
F2.8
sg24
S'Labrus '
p885
sg34
S'1200'
p886
sg41
S'N'
p887
sg45
S'Labri'
p888
sg49
I6
sg55
S'line'
p889
sg59
S'200'
p890
sg63
I6
sg66
S'40'
p891
ssg15
S'Dufou-17'
p892
sbsI75
(idataset.study
Study
p893
(dp894
g7
I75
sg8
(dp895
g10
F0.35
sg17
S'Labrus merula'
p896
sg21
F1.7
sg24
S'Labrus '
p897
sg34
S'1200'
p898
sg41
S'Y'
p899
sg45
S'Labri'
p900
sg49
I6
sg55
S'line'
p901
sg59
S'200'
p902
sg63
I6
sg66
S'45'
p903
ssg15
S'Dufou-18'
p904
sbsI76
(idataset.study
Study
p905
(dp906
g7
I76
sg8
(dp907
g10
F0.0
sg17
S'Labrus viridis'
p908
sg21
F0.2
sg24
S'Labrus '
p909
sg34
S'1200'
p910
sg41
S'Y'
p911
sg45
S'Labri'
p912
sg49
I6
sg55
S'line'
p913
sg59
S'200'
p914
sg63
I6
sg66
S'47'
p915
ssg15
S'Dufou-19'
p916
sbsI77
(idataset.study
Study
p917
(dp918
g7
I77
sg8
(dp919
g10
F0.0
sg17
S'Muraena helena'
p920
sg21
F0.05
sg24
S'Muraena '
p921
sg34
S'1200'
p922
sg41
S'N'
p923
sg45
S'Murae'
p924
sg49
I6
sg55
S'line'
p925
sg59
S'200'
p926
sg63
I6
sg66
S'130'
p927
ssg15
S'Dufou-20'
p928
sbsI78
(idataset.study
Study
p929
(dp930
g7
I78
sg8
(dp931
g10
F0.9
sg17
S'Oblada melanura'
p932
sg21
F0.0
sg24
S'Oblada '
p933
sg34
S'1200'
p934
sg41
S'Y'
p935
sg45
S'Spari'
p936
sg49
I6
sg55
S'line'
p937
sg59
S'200'
p938
sg63
I6
sg66
S'30'
p939
ssg15
S'Dufou-21'
p940
sbsI79
(idataset.study
Study
p941
(dp942
g7
I79
sg8
(dp943
g10
F0.05
sg17
S'Phycis phycis'
p944
sg21
F0.05
sg24
S'Phycis '
p945
sg34
S'1200'
p946
sg41
S'N'
p947
sg45
S'Phyci'
p948
sg49
I6
sg55
S'line'
p949
sg59
S'200'
p950
sg63
I6
sg66
S'65'
p951
ssg15
S'Dufou-22'
p952
sbsI80
(idataset.study
Study
p953
(dp954
g7
I80
sg8
(dp955
g10
F1.95
sg17
S'Sarpa salpa'
p956
sg21
F0.0
sg24
S'Sarpa '
p957
sg34
S'1200'
p958
sg41
S'Y'
p959
sg45
S'Spari'
p960
sg49
I6
sg55
S'line'
p961
sg59
S'200'
p962
sg63
I6
sg66
S'46'
p963
ssg15
S'Dufou-23'
p964
sbsI81
(idataset.study
Study
p965
(dp966
g7
I81
sg8
(dp967
g10
F0.15
sg17
S'Sciaena umbra'
p968
sg21
F0.3
sg24
S'Sciaena '
p969
sg34
S'1200'
p970
sg41
S'Y'
p971
sg45
S'Sciae'
p972
sg49
I6
sg55
S'line'
p973
sg59
S'200'
p974
sg63
I6
sg66
S'50'
p975
ssg15
S'Dufou-24'
p976
sbsI82
(idataset.study
Study
p977
(dp978
g7
I82
sg8
(dp979
g10
F0.8
sg17
S'Scorpaena porcus'
p980
sg21
F0.65
sg24
S'Scorpaena '
p981
sg34
S'1200'
p982
sg41
S'Y'
p983
sg45
S'Scorp'
p984
sg49
I6
sg55
S'line'
p985
sg59
S'200'
p986
sg63
I6
sg66
S'25'
p987
ssg15
S'Dufou-25'
p988
sbsI83
(idataset.study
Study
p989
(dp990
g7
I83
sg8
(dp991
g10
F0.8
sg17
S'Scorpaena scrofa'
p992
sg21
F0.4
sg24
S'Scorpaena '
p993
sg34
S'1200'
p994
sg41
S'Y'
p995
sg45
S'Scorp'
p996
sg49
I6
sg55
S'line'
p997
sg59
S'200'
p998
sg63
I6
sg66
S'50'
p999
ssg15
S'Dufou-26'
p1000
sbsI84
(idataset.study
Study
p1001
(dp1002
g7
I84
sg8
(dp1003
g10
F1.95
sg17
S'Spicara maena'
p1004
sg21
F2.05
sg24
S'Spicara '
p1005
sg34
S'1200'
p1006
sg41
S'N'
p1007
sg45
S'Centr'
p1008
sg49
I6
sg55
S'line'
p1009
sg59
S'200'
p1010
sg63
I6
sg66
S'25'
p1011
ssg15
S'Dufou-27'
p1012
sbsI85
(idataset.study
Study
p1013
(dp1014
g7
I85
sg8
(dp1015
g10
F0.0
sg17
S'Spondyliosoma cantharus'
p1016
sg21
F0.7
sg24
S'Spondyliosoma '
p1017
sg34
S'1200'
p1018
sg41
S'Y'
p1019
sg45
S'Spari'
p1020
sg49
I6
sg55
S'line'
p1021
sg59
S'200'
p1022
sg63
I6
sg66
S'60'
p1023
ssg15
S'Dufou-28'
p1024
sbsI86
(idataset.study
Study
p1025
(dp1026
g7
I86
sg8
(dp1027
g10
F0.25
sg17
S'Symphodus cinereus'
p1028
sg21
F0.0
sg24
S'Symphodus '
p1029
sg34
S'1200'
p1030
sg41
S'N'
p1031
sg45
S'Labri'
p1032
sg49
I6
sg55
S'line'
p1033
sg59
S'200'
p1034
sg63
I6
sg66
S'15'
p1035
ssg15
S'Dufou-29'
p1036
sbsI87
(idataset.study
Study
p1037
(dp1038
g7
I87
sg8
(dp1039
g10
F57.15
sg17
S'Coris julis'
p1040
sg21
F75.0
sg24
S'Coris '
p1041
sg34
S'1200'
p1042
sg41
S'N'
p1043
sg45
S'Labri'
p1044
sg49
I6
sg55
S'line'
p1045
sg59
S'200'
p1046
sg63
I6
sg66
S'25'
p1047
ssg15
S'Dufou-30'
p1048
sbsI88
(idataset.study
Study
p1049
(dp1050
g7
I88
sg8
(dp1051
g10
F0.05
sg17
S'Diplodus annularis'
p1052
sg21
F0.5
sg24
S'Diplodus '
p1053
sg34
S'1200'
p1054
sg41
S'Y'
p1055
sg45
S'Spari'
p1056
sg49
I6
sg55
S'line'
p1057
sg59
S'200'
p1058
sg63
I6
sg66
S'24'
p1059
ssg15
S'Dufou-31'
p1060
sbsI89
(idataset.study
Study
p1061
(dp1062
g7
I89
sg8
(dp1063
g10
F2.2
sg17
S'Mullus surmuletus'
p1064
sg21
F0.55
sg24
S'Mullus '
p1065
sg34
S'1200'
p1066
sg41
S'Y'
p1067
sg45
S'Mulli'
p1068
sg49
I6
sg55
S'line'
p1069
sg59
S'200'
p1070
sg63
I6
sg66
S'40'
p1071
ssg15
S'Dufou-32'
p1072
sbsI90
(idataset.study
Study
p1073
(dp1074
g7
I90
sg8
(dp1075
g10
F7.2
sg17
S'Serranus cabrilla'
p1076
sg21
F7.85
sg24
S'Serranus '
p1077
sg34
S'1200'
p1078
sg41
S'Y'
p1079
sg45
S'Serra'
p1080
sg49
I6
sg55
S'line'
p1081
sg59
S'200'
p1082
sg63
I6
sg66
S'40'
p1083
ssg15
S'Dufou-33'
p1084
sbsI91
(idataset.study
Study
p1085
(dp1086
g7
I91
sg8
(dp1087
g10
F0.65
sg17
S'Serranus scriba'
p1088
sg21
F5.05
sg24
S'Serranus '
p1089
sg34
S'1200'
p1090
sg41
S'Y'
p1091
sg45
S'Serra'
p1092
sg49
I6
sg55
S'line'
p1093
sg59
S'200'
p1094
sg63
I6
sg66
S'36'
p1095
ssg15
S'Dufou-34'
p1096
sbsI92
(idataset.study
Study
p1097
(dp1098
g7
I92
sg8
(dp1099
g10
F1.95
sg17
S'Symphodus doderleini'
p1100
sg21
F1.45
sg24
S'Symphodus '
p1101
sg34
S'1200'
p1102
sg41
S'N'
p1103
sg45
S'Labri'
p1104
sg49
I6
sg55
S'line'
p1105
sg59
S'200'
p1106
sg63
I6
sg66
S'10'
p1107
ssg15
S'Dufou-35'
p1108
sbsI93
(idataset.study
Study
p1109
(dp1110
g7
I93
sg8
(dp1111
g10
F12.25
sg17
S'Symphodus mediterraneus'
p1112
sg21
F12.25
sg24
S'Symphodus '
p1113
sg34
S'1200'
p1114
sg41
S'N'
p1115
sg45
S'Labri'
p1116
sg49
I6
sg55
S'line'
p1117
sg59
S'200'
p1118
sg63
I6
sg66
S'18'
p1119
ssg15
S'Dufou-36'
p1120
sbsI94
(idataset.study
Study
p1121
(dp1122
g7
I94
sg8
(dp1123
g10
F9.0
sg17
S'Symphodus melanocercus'
p1124
sg21
F6.8
sg24
S'Symphodus '
p1125
sg34
S'1200'
p1126
sg41
S'N'
p1127
sg45
S'Labri'
p1128
sg49
I6
sg55
S'line'
p1129
sg59
S'200'
p1130
sg63
I6
sg66
S'14'
p1131
ssg15
S'Dufou-37'
p1132
sbsI95
(idataset.study
Study
p1133
(dp1134
g7
I95
sg8
(dp1135
g10
F19.65
sg17
S'Symphodus ocellatus'
p1136
sg21
F34.9
sg24
S'Symphodus '
p1137
sg34
S'1200'
p1138
sg41
S'N'
p1139
sg45
S'Labri'
p1140
sg49
I6
sg55
S'line'
p1141
sg59
S'200'
p1142
sg63
I6
sg66
S'12'
p1143
ssg15
S'Dufou-38'
p1144
sbsI96
(idataset.study
Study
p1145
(dp1146
g7
I96
sg8
(dp1147
g10
F0.25
sg17
S'Symphodus rostratus'
p1148
sg21
F0.0
sg24
S'Symphodus '
p1149
sg34
S'1200'
p1150
sg41
S'N'
p1151
sg45
S'Labri'
p1152
sg49
I6
sg55
S'line'
p1153
sg59
S'200'
p1154
sg63
I6
sg66
S'13'
p1155
ssg15
S'Dufou-39'
p1156
sbsI97
(idataset.study
Study
p1157
(dp1158
g7
I97
sg8
(dp1159
g10
F4.25
sg17
S'Symphodus tinca'
p1160
sg21
F4.45
sg24
S'Symphodus '
p1161
sg34
S'1200'
p1162
sg41
S'Y'
p1163
sg45
S'Labri'
p1164
sg49
I6
sg55
S'line'
p1165
sg59
S'200'
p1166
sg63
I6
sg66
S'35'
p1167
ssg15
S'Dufou-40'
p1168
sbsI98
(idataset.study
Study
p1169
(dp1170
g7
I98
sg8
(dp1171
g10
F0.05
sg17
S'Labrus spp.'
p1172
sg21
F0.046
sg24
S'Labrus '
p1173
sg34
S'1280'
p1174
sg41
S'Y'
p1175
sg45
S'Labri'
p1176
sg55
S'line'
p1177
sg59
S'40'
p1178
sg63
I44
sg49
I20
ssg15
S'Francour'
p1179
sbsI99
(idataset.study
Study
p1180
(dp1181
g7
I99
sg8
(dp1182
g10
F0.39
sg17
S'Spodyliosoma cantharus'
p1183
sg21
F0.278
sg24
S'Spodyliosoma '
p1184
sg34
S'1280'
p1185
sg41
S'Y'
p1186
sg45
S'Spari'
p1187
sg49
I20
sg55
S'line'
p1188
sg59
S'40'
p1189
sg63
I44
sg66
S'60'
p1190
ssg15
S'Francour-2'
p1191
sbsI100
(idataset.study
Study
p1192
(dp1193
g7
I100
sg8
(dp1194
g10
F0.03
sg17
S'Symphodus cinereus'
p1195
sg21
F0.0
sg24
S'Symphodus '
p1196
sg34
S'1280'
p1197
sg41
S'Y'
p1198
sg45
S'Labri'
p1199
sg49
I20
sg55
S'line'
p1200
sg59
S'40'
p1201
sg63
I44
sg66
S'15'
p1202
ssg15
S'Francour-3'
p1203
sbsI101
(idataset.study
Study
p1204
(dp1205
g7
I101
sg8
(dp1206
g10
F0.04
sg17
S'Symphodus roissali'
p1207
sg21
F0.044
sg24
S'Symphodus '
p1208
sg34
S'1280'
p1209
sg41
S'Y'
p1210
sg45
S'Labri'
p1211
sg49
I20
sg55
S'line'
p1212
sg59
S'40'
p1213
sg63
I44
sg66
S'17'
p1214
ssg15
S'Francour-4'
p1215
sbsI102
(idataset.study
Study
p1216
(dp1217
g7
I102
sg8
(dp1218
g10
F0.98
sg17
S'Coris julis'
p1219
sg21
F1.101
sg24
S'Coris '
p1220
sg34
S'1280'
p1221
sg41
S'Y'
p1222
sg45
S'Labri'
p1223
sg49
I20
sg55
S'line'
p1224
sg59
S'40'
p1225
sg63
I44
sg66
S'25'
p1226
ssg15
S'Francour-5'
p1227
sbsI103
(idataset.study
Study
p1228
(dp1229
g7
I103
sg8
(dp1230
g10
F0.9
sg17
S'Diplodus annularis'
p1231
sg21
F0.393
sg24
S'Diplodus '
p1232
sg34
S'1280'
p1233
sg41
S'Y'
p1234
sg45
S'Spari'
p1235
sg49
I20
sg55
S'line'
p1236
sg59
S'40'
p1237
sg63
I44
sg66
S'24'
p1238
ssg15
S'Francour-6'
p1239
sbsI104
(idataset.study
Study
p1240
(dp1241
g7
I104
sg8
(dp1242
g10
F0.38
sg17
S'Mullus surmuletus'
p1243
sg21
F0.236
sg24
S'Mullus '
p1244
sg34
S'1280'
p1245
sg41
S'Y'
p1246
sg45
S'Mulli'
p1247
sg49
I20
sg55
S'line'
p1248
sg59
S'40'
p1249
sg63
I44
sg66
S'40'
p1250
ssg15
S'Francour-7'
p1251
sbsI105
(idataset.study
Study
p1252
(dp1253
g7
I105
sg8
(dp1254
g10
F0.23
sg17
S'Serranus cabrilla'
p1255
sg21
F0.235
sg24
S'Serranus '
p1256
sg34
S'1280'
p1257
sg41
S'Y'
p1258
sg45
S'Serra'
p1259
sg49
I20
sg55
S'line'
p1260
sg59
S'40'
p1261
sg63
I44
sg66
S'40'
p1262
ssg15
S'Francour-8'
p1263
sbsI106
(idataset.study
Study
p1264
(dp1265
g7
I106
sg8
(dp1266
g10
F0.08
sg17
S'Serranus scriba'
p1267
sg21
F0.145
sg24
S'Serranus '
p1268
sg34
S'1280'
p1269
sg41
S'Y'
p1270
sg45
S'Serra'
p1271
sg49
I20
sg55
S'line'
p1272
sg59
S'40'
p1273
sg63
I44
sg66
S'36'
p1274
ssg15
S'Francour-9'
p1275
sbsI107
(idataset.study
Study
p1276
(dp1277
g7
I107
sg8
(dp1278
g10
F0.0
sg17
S'Symphodus doderleini'
p1279
sg21
F0.022
sg24
S'Symphodus '
p1280
sg34
S'1280'
p1281
sg41
S'Y'
p1282
sg45
S'Labri'
p1283
sg49
I20
sg55
S'line'
p1284
sg59
S'40'
p1285
sg63
I44
sg66
S'10'
p1286
ssg15
S'Francour-10'
p1287
sbsI108
(idataset.study
Study
p1288
(dp1289
g7
I108
sg8
(dp1290
g10
F0.0
sg17
S'Symphodus mediterraneus'
p1291
sg21
F0.079
sg24
S'Symphodus '
p1292
sg34
S'1280'
p1293
sg41
S'Y'
p1294
sg45
S'Labri'
p1295
sg49
I20
sg55
S'line'
p1296
sg59
S'40'
p1297
sg63
I44
sg66
S'18'
p1298
ssg15
S'Francour-11'
p1299
sbsI109
(idataset.study
Study
p1300
(dp1301
g7
I109
sg8
(dp1302
g10
F0.04
sg17
S'Symphodus melanocercus'
p1303
sg21
F0.144
sg24
S'Symphodus '
p1304
sg34
S'1280'
p1305
sg41
S'Y'
p1306
sg45
S'Labri'
p1307
sg49
I20
sg55
S'line'
p1308
sg59
S'40'
p1309
sg63
I44
sg66
S'14'
p1310
ssg15
S'Francour-12'
p1311
sbsI110
(idataset.study
Study
p1312
(dp1313
g7
I110
sg8
(dp1314
g10
F0.13
sg17
S'Symphodus ocellatus'
p1315
sg21
F0.132
sg24
S'Symphodus '
p1316
sg34
S'1280'
p1317
sg41
S'Y'
p1318
sg45
S'Labri'
p1319
sg49
I20
sg55
S'line'
p1320
sg59
S'40'
p1321
sg63
I44
sg66
S'12'
p1322
ssg15
S'Francour-13'
p1323
sbsI111
(idataset.study
Study
p1324
(dp1325
g7
I111
sg8
(dp1326
g10
F0.06
sg17
S'Symphodus rostratus'
p1327
sg21
F0.091
sg24
S'Symphodus '
p1328
sg34
S'1280'
p1329
sg41
S'Y'
p1330
sg45
S'Labri'
p1331
sg49
I20
sg55
S'line'
p1332
sg59
S'40'
p1333
sg63
I44
sg66
S'13'
p1334
ssg15
S'Francour-14'
p1335
sbsI112
(idataset.study
Study
p1336
(dp1337
g7
I112
sg8
(dp1338
g10
F0.13
sg17
S'Symphodus tinca'
p1339
sg21
F0.104
sg24
S'Symphodus '
p1340
sg34
S'1280'
p1341
sg41
S'Y'
p1342
sg45
S'Labri'
p1343
sg49
I20
sg55
S'line'
p1344
sg59
S'40'
p1345
sg63
I44
sg66
S'35'
p1346
ssg15
S'Francour-15'
p1347
sbsI113
(idataset.study
Study
p1348
(dp1349
g7
I113
sg8
(dp1350
g10
F0.133
sg17
S'Apogon imberbis'
p1351
sg21
F0.067
sg24
S'Apogon '
p1352
sg28
F0.13376408335277543
sg31
F0.502
sg34
S'3750'
p1353
sg38
F0.259
sg41
S'N'
p1354
sg45
S'Apogo'
p1355
sg49
I15
sg52
F0.1607638055238963
sg55
S'line'
p1356
sg59
S'250'
p1357
sg63
I15
sg66
S'50'
p1358
ssg15
S'Garcia'
p1359
sbsI114
(idataset.study
Study
p1360
(dp1361
g7
I114
sg8
(dp1362
g10
F0.0
sg17
S'Atherina spp.'
p1363
sg21
F5.0
sg24
S'Atherina '
p1364
sg28
F0.13543686391076465
sg31
F0.0
sg34
S'3750'
p1365
sg38
F19.365
sg41
S'N'
p1366
sg45
S'Ather'
p1367
sg49
I15
sg52
F-0.35526304993044044
sg55
S'line'
p1368
sg59
S'250'
p1369
sg63
I15
sg66
S'13'
p1370
ssg15
S'Garcia-2'
p1371
sbsI115
(idataset.study
Study
p1372
(dp1373
g7
I115
sg8
(dp1374
g10
F0.867
sg17
S'Blennius gattorugine'
p1375
sg21
F0.267
sg24
S'Blennius '
p1376
sg28
F0.14539864248833734
sg31
F0.768
sg34
S'3750'
p1377
sg38
F0.593
sg41
S'N'
p1378
sg45
S'Blenn'
p1379
sg49
I15
sg52
F0.8508340315832695
sg55
S'line'
p1380
sg59
S'250'
p1381
sg63
I15
sg66
S'30'
p1382
ssg15
S'Garcia-3'
p1383
sbsI116
(idataset.study
Study
p1384
(dp1385
g7
I116
sg8
(dp1386
g10
F0.0
sg17
S'Blennius incognitus'
p1387
sg21
F0.067
sg24
S'Blennius '
p1388
sg28
F0.13544484701896603
sg31
F0.0
sg34
S'3750'
p1389
sg38
F0.259
sg41
S'N'
p1390
sg45
S'Blenn'
p1391
sg49
I15
sg52
F-0.35593654088610005
sg55
S'line'
p1392
sg59
S'250'
p1393
sg63
I15
sg66
S'7'
p1394
ssg15
S'Garcia-4'
p1395
sbsI117
(idataset.study
Study
p1396
(dp1397
g7
I117
sg8
(dp1398
g10
F5.6
sg17
S'Blennius rouxi'
p1399
sg21
F4.067
sg24
S'Blennius '
p1400
sg28
F0.13675241780042516
sg31
F3.304
sg34
S'3750'
p1401
sg38
F3.282
sg41
S'N'
p1402
sg45
S'Blenn'
p1403
sg49
I15
sg52
F0.45292942940982545
sg55
S'line'
p1404
sg59
S'250'
p1405
sg63
I15
sg66
S'8'
p1406
ssg15
S'Garcia-5'
p1407
sbsI118
(idataset.study
Study
p1408
(dp1409
g7
I118
sg8
(dp1410
g10
F634.267
sg17
S'Boops boops'
p1411
sg21
F135.133
sg24
S'Boops '
p1412
sg28
F0.14874505367494434
sg31
F680.804
sg34
S'3750'
p1413
sg38
F215.807
sg41
S'N'
p1414
sg45
S'Spari'
p1415
sg49
I15
sg52
F0.9616149023890287
sg55
S'line'
p1416
sg59
S'250'
p1417
sg63
I15
sg66
S'36'
p1418
ssg15
S'Garcia-6'
p1419
sbsI119
(idataset.study
Study
p1420
(dp1421
g7
I119
sg8
(dp1422
g10
F0.0
sg17
S'Dicentrarchus labrax'
p1423
sg21
F4.6
sg24
S'Dicentrarchus '
p1424
sg28
F0.1436364288490604
sg31
F0.0
sg34
S'3750'
p1425
sg38
F8.05
sg41
S'Y'
p1426
sg45
S'Serra'
p1427
sg49
I15
sg52
F-0.7862478813603402
sg55
S'line'
p1428
sg59
S'250'
p1429
sg63
I15
sg66
S'100'
p1430
ssg15
S'Garcia-7'
p1431
sbsI120
(idataset.study
Study
p1432
(dp1433
g7
I120
sg8
(dp1434
g10
F0.0
sg17
S'Diplodus cervinus'
p1435
sg21
F1.667
sg24
S'Diplodus '
p1436
sg28
F0.1725121970271016
sg31
F0.0
sg34
S'3750'
p1437
sg38
F1.496
sg41
S'Y'
p1438
sg45
S'Spari'
p1439
sg49
I15
sg52
F-1.5332096469909444
sg55
S'line'
p1440
sg59
S'250'
p1441
sg63
I15
sg66
S'55'
p1442
ssg15
S'Garcia-8'
p1443
sbsI121
(idataset.study
Study
p1444
(dp1445
g7
I121
sg8
(dp1446
g10
F0.0
sg17
S'Epinephelus guaza'
p1447
sg21
F0.333
sg24
S'Epinephelus '
p1448
sg28
F0.14246501981328716
sg31
F0.0
sg34
S'3750'
p1449
sg38
F0.619
sg41
S'Y'
p1450
sg45
S'Serra'
p1451
sg49
I15
sg52
F-0.7402034779688826
sg55
S'line'
p1452
sg59
S'250'
p1453
sg63
I15
sg66
S'150'
p1454
ssg15
S'Garcia-9'
p1455
sbsI122
(idataset.study
Study
p1456
(dp1457
g7
I122
sg8
(dp1458
g10
F1.8
sg17
S'Gobius buchichii'
p1459
sg21
F0.0
sg24
S'Gobius '
p1460
sg28
F0.2176695657360469
sg31
F1.101
sg34
S'3750'
p1461
sg38
F0.0
sg41
S'N'
p1462
sg45
S'Gobii'
p1463
sg49
I15
sg52
F2.2494830393143253
sg55
S'line'
p1464
sg59
S'250'
p1465
sg63
I15
sg66
S'10'
p1466
ssg15
S'Garcia-10'
p1467
sbsI123
(idataset.study
Study
p1468
(dp1469
g7
I123
sg8
(dp1470
g10
F0.867
sg17
S'Mugil sp.'
p1471
sg21
F11.933
sg24
S'Mugil '
p1472
sg28
F0.15816353938551525
sg31
F0.765
sg34
S'3750'
p1473
sg38
F12.451
sg41
S'N'
p1474
sg45
S'Mugil'
p1475
sg52
F-1.2205787000971773
sg55
S'line'
p1476
sg59
S'250'
p1477
sg63
I15
sg49
I15
ssg15
S'Garcia-11'
p1478
sbsI124
(idataset.study
Study
p1479
(dp1480
g7
I124
sg8
(dp1481
g10
F0.133
sg17
S'Pagrus pagrus'
p1482
sg21
F0.0
sg24
S'Pagrus '
p1483
sg28
F0.13791576767926805
sg31
F0.349
sg34
S'3750'
p1484
sg38
F0.0
sg41
S'Y'
p1485
sg45
S'Spari'
p1486
sg49
I15
sg52
F0.5243529925118029
sg55
S'line'
p1487
sg59
S'250'
p1488
sg63
I15
sg66
S'75'
p1489
ssg15
S'Garcia-12'
p1490
sbsI125
(idataset.study
Study
p1491
(dp1492
g7
I125
sg8
(dp1493
g10
F0.4
sg17
S'Sarda sarda'
p1494
sg21
F0.0
sg24
S'Sarda '
p1495
sg28
F0.13572462514892633
sg31
F1.453
sg34
S'3750'
p1496
sg38
F0.0
sg41
S'Y'
p1497
sg45
S'Scomb'
p1498
sg49
I15
sg52
F0.3787842511715335
sg55
S'line'
p1499
sg59
S'250'
p1500
sg63
I15
sg66
S'90'
p1501
ssg15
S'Garcia-13'
p1502
sbsI126
(idataset.study
Study
p1503
(dp1504
g7
I126
sg8
(dp1505
g10
F0.067
sg17
S'Scorpaena notata'
p1506
sg21
F0.0
sg24
S'Scorpaena '
p1507
sg28
F0.13571243924481424
sg31
F0.244
sg34
S'3750'
p1508
sg38
F0.0
sg41
S'N'
p1509
sg45
S'Scorp'
p1510
sg49
I15
sg52
F0.3778178856127046
sg55
S'line'
p1511
sg59
S'250'
p1512
sg63
I15
sg66
S'20'
p1513
ssg15
S'Garcia-14'
p1514
sbsI127
(idataset.study
Study
p1515
(dp1516
g7
I127
sg8
(dp1517
g10
F0.0
sg17
S'Seriola dumerilii'
p1518
sg21
F2.0
sg24
S'Seriola '
p1519
sg28
F0.13543577807747395
sg31
F0.0
sg34
S'3750'
p1520
sg38
F7.748
sg41
S'Y'
p1521
sg45
S'Caran'
p1522
sg49
I15
sg52
F-0.3551713454776963
sg55
S'line'
p1523
sg59
S'250'
p1524
sg63
I15
sg66
S'190'
p1525
ssg15
S'Garcia-15'
p1526
sbsI128
(idataset.study
Study
p1527
(dp1528
g7
I128
sg8
(dp1529
g10
F0.067
sg17
S'Sparus auratus'
p1530
sg21
F4.2
sg24
S'Sparus '
p1531
sg28
F0.15012660886562557
sg31
F0.244
sg34
S'3750'
p1532
sg38
F5.66
sg41
S'Y'
p1533
sg45
S'Spari'
p1534
sg49
I15
sg52
F-1.0037910798256449
sg55
S'line'
p1535
sg59
S'250'
p1536
sg63
I15
sg66
S'70'
p1537
ssg15
S'Garcia-16'
p1538
sbsI129
(idataset.study
Study
p1539
(dp1540
g7
I129
sg8
(dp1541
g10
F0.0
sg17
S'Sphyraena sphyraena'
p1542
sg21
F0.467
sg24
S'Sphyraena '
p1543
sg28
F0.13776575939603336
sg31
F0.0
sg34
S'3750'
p1544
sg38
F1.246
sg41
S'Y'
p1545
sg45
S'Sphyr'
p1546
sg49
I15
sg52
F-0.5156991019596614
sg55
S'line'
p1547
sg59
S'250'
p1548
sg63
I15
sg66
S'160'
p1549
ssg15
S'Garcia-17'
p1550
sbsI130
(idataset.study
Study
p1551
(dp1552
g7
I130
sg8
(dp1553
g10
F17.0
sg17
S'Spicara smaris'
p1554
sg21
F19.667
sg24
S'Spicara '
p1555
sg28
F0.1334249756830852
sg31
F26.812
sg34
S'3750'
p1556
sg38
F41.595
sg41
S'N'
p1557
sg45
S'Centr'
p1558
sg49
I15
sg52
F-0.07415214754214254
sg55
S'line'
p1559
sg59
S'250'
p1560
sg63
I15
sg66
S'20'
p1561
ssg15
S'Garcia-18'
p1562
sbsI131
(idataset.study
Study
p1563
(dp1564
g7
I131
sg8
(dp1565
g10
F0.133
sg17
S'Thalassoma pavo'
p1566
sg21
F0.0
sg24
S'Thalassoma '
p1567
sg28
F0.13933328050634267
sg31
F0.305
sg34
S'3750'
p1568
sg38
F0.0
sg41
S'N'
p1569
sg45
S'Labri'
p1570
sg49
I15
sg52
F0.5999973586446532
sg55
S'line'
p1571
sg59
S'250'
p1572
sg63
I15
sg66
S'25'
p1573
ssg15
S'Garcia-19'
p1574
sbsI132
(idataset.study
Study
p1575
(dp1576
g7
I132
sg8
(dp1577
g10
F2.0
sg17
S'Tripterygion spp.'
p1578
sg21
F3.2
sg24
S'Tripterygion '
p1579
sg28
F0.13849953565080922
sg31
F1.41
sg34
S'3750'
p1580
sg38
F2.609
sg41
S'N'
p1581
sg45
S'Tripterygiidae'
p1582
sg49
I15
sg52
F-0.5567514158478207
sg55
S'line'
p1583
sg59
S'250'
p1584
sg63
I15
sg66
S'9'
p1585
ssg15
S'Garcia-20'
p1586
sbsI133
(idataset.study
Study
p1587
(dp1588
g7
I133
sg8
(dp1589
g10
F330.333
sg17
S'Chromis chromis'
p1590
sg21
F137.533
sg24
S'Chromis '
p1591
sg28
F0.14305717323207812
sg31
F323.998
sg34
S'3750'
p1592
sg38
F125.082
sg41
S'N'
p1593
sg45
S'Pomac'
p1594
sg49
I15
sg52
F0.7638261542554607
sg55
S'line'
p1595
sg59
S'250'
p1596
sg63
I15
sg66
S'15'
p1597
ssg15
S'Garcia-21'
p1598
sbsI134
(idataset.study
Study
p1599
(dp1600
g7
I134
sg8
(dp1601
g10
F11.667
sg17
S'Ctenolabrus rupestris'
p1602
sg21
F11.067
sg24
S'Ctenolabrus '
p1603
sg28
F0.13367701507770993
sg31
F2.642
sg34
S'3750'
p1604
sg38
F5.106
sg41
S'N'
p1605
sg45
S'Labri'
p1606
sg49
I15
sg52
F0.14359980732088945
sg55
S'line'
p1607
sg59
S'250'
p1608
sg63
I15
sg66
S'18'
p1609
ssg15
S'Garcia-22'
p1610
sbsI135
(idataset.study
Study
p1611
(dp1612
g7
I135
sg8
(dp1613
g10
F0.333
sg17
S'Diplodus puntazzo'
p1614
sg21
F3.533
sg24
S'Diplodus '
p1615
sg28
F0.1415304443822287
sg31
F0.761
sg34
S'3750'
p1616
sg38
F6.232
sg41
S'Y'
p1617
sg45
S'Spari'
p1618
sg49
I15
sg52
F-0.7013035455020324
sg55
S'line'
p1619
sg59
S'250'
p1620
sg63
I15
sg66
S'60'
p1621
ssg15
S'Garcia-23'
p1622
sbsI136
(idataset.study
Study
p1623
(dp1624
g7
I136
sg8
(dp1625
g10
F12.933
sg17
S'Diplodus sargus'
p1626
sg21
F45.667
sg24
S'Diplodus '
p1627
sg28
F0.1476581705603319
sg31
F11.522
sg34
S'3750'
p1628
sg38
F47.196
sg41
S'Y'
p1629
sg45
S'Spari'
p1630
sg49
I15
sg52
F-0.9270869611961515
sg55
S'line'
p1631
sg59
S'250'
p1632
sg63
I15
sg66
S'45'
p1633
ssg15
S'Garcia-24'
p1634
sbsI137
(idataset.study
Study
p1635
(dp1636
g7
I137
sg8
(dp1637
g10
F12.3
sg17
S'Diplodus vulgaris'
p1638
sg21
F12.933
sg24
S'Diplodus '
p1639
sg28
F0.13340207154605382
sg31
F9.428
sg34
S'3750'
p1640
sg38
F9.749
sg41
S'Y'
p1641
sg45
S'Spari'
p1642
sg49
I15
sg52
F-0.06422065682651346
sg55
S'line'
p1643
sg59
S'250'
p1644
sg63
I15
sg66
S'45'
p1645
ssg15
S'Garcia-25'
p1646
sbsI138
(idataset.study
Study
p1647
(dp1648
g7
I138
sg8
(dp1649
g10
F0.067
sg17
S'Gobius cruentatus'
p1650
sg21
F0.0
sg24
S'Gobius '
p1651
sg28
F0.13571243924481424
sg31
F0.244
sg34
S'3750'
p1652
sg38
F0.0
sg41
S'N'
p1653
sg45
S'Gobii'
p1654
sg49
I15
sg52
F0.3778178856127046
sg55
S'line'
p1655
sg59
S'250'
p1656
sg63
I15
sg66
S'18'
p1657
ssg15
S'Garcia-26'
p1658
sbsI139
(idataset.study
Study
p1659
(dp1660
g7
I139
sg8
(dp1661
g10
F0.0
sg17
S'Labrus bimaculatus'
p1662
sg21
F1.067
sg24
S'Labrus '
p1663
sg28
F0.15882928483313677
sg31
F0.0
sg34
S'3750'
p1664
sg38
F1.187
sg41
S'N'
p1665
sg45
S'Labri'
p1666
sg49
I15
sg52
F-1.2368334932351266
sg55
S'line'
p1667
sg59
S'250'
p1668
sg63
I15
sg66
S'40'
p1669
ssg15
S'Garcia-27'
p1670
sbsI140
(idataset.study
Study
p1671
(dp1672
g7
I140
sg8
(dp1673
g10
F1.067
sg17
S'Labrus merula'
p1674
sg21
F1.933
sg24
S'Labrus '
p1675
sg28
F0.1401290985814781
sg31
F0.996
sg34
S'3750'
p1676
sg38
F1.578
sg41
S'N'
p1677
sg45
S'Labri'
p1678
sg49
I15
sg52
F-0.6385498530958138
sg55
S'line'
p1679
sg59
S'250'
p1680
sg63
I15
sg66
S'45'
p1681
ssg15
S'Garcia-28'
p1682
sbsI141
(idataset.study
Study
p1683
(dp1684
g7
I141
sg8
(dp1685
g10
F1.267
sg17
S'Labrus viridis'
p1686
sg21
F0.333
sg24
S'Labrus '
p1687
sg28
F0.15409387100886804
sg31
F1.042
sg34
S'3750'
p1688
sg38
F0.49
sg41
S'Y'
p1689
sg45
S'Labri'
p1690
sg49
I15
sg52
F1.1160789669786282
sg55
S'line'
p1691
sg59
S'250'
p1692
sg63
I15
sg66
S'47'
p1693
ssg15
S'Garcia-29'
p1694
sbsI142
(idataset.study
Study
p1695
(dp1696
g7
I142
sg8
(dp1697
g10
F0.067
sg17
S'Muraena helena'
p1698
sg21
F0.0
sg24
S'Muraena '
p1699
sg28
F0.13571243924481424
sg31
F0.244
sg34
S'3750'
p1700
sg38
F0.0
sg41
S'Y'
p1701
sg45
S'Murae'
p1702
sg49
I15
sg52
F0.3778178856127046
sg55
S'line'
p1703
sg59
S'250'
p1704
sg63
I15
sg66
S'130'
p1705
ssg15
S'Garcia-30'
p1706
sbsI143
(idataset.study
Study
p1707
(dp1708
g7
I143
sg8
(dp1709
g10
F119.333
sg17
S'Oblada melanura'
p1710
sg21
F17.867
sg24
S'Oblada '
p1711
sg28
F0.1379114844234451
sg31
F260.406
sg34
S'3750'
p1712
sg38
F56.086
sg41
S'Y'
p1713
sg45
S'Spari'
p1714
sg49
I15
sg52
F0.5241078757342877
sg55
S'line'
p1715
sg59
S'250'
p1716
sg63
I15
sg66
S'30'
p1717
ssg15
S'Garcia-31'
p1718
sbsI144
(idataset.study
Study
p1719
(dp1720
g7
I144
sg8
(dp1721
g10
F0.0
sg17
S'Phycis phycis'
p1722
sg21
F0.133
sg24
S'Phycis '
p1723
sg28
F0.13781250486804747
sg31
F0.0
sg34
S'3750'
p1724
sg38
F0.353
sg41
S'Y'
p1725
sg45
S'Gadid'
p1726
sg49
I15
sg52
F-0.5184113155428306
sg55
S'line'
p1727
sg59
S'250'
p1728
sg63
I15
sg66
S'60'
p1729
ssg15
S'Garcia-32'
p1730
sbsI145
(idataset.study
Study
p1731
(dp1732
g7
I145
sg8
(dp1733
g10
F64.333
sg17
S'Sarpa salpa'
p1734
sg21
F35.733
sg24
S'Sarpa '
p1735
sg28
F0.13702857076446784
sg31
F59.906
sg34
S'3750'
p1736
sg38
F58.273
sg41
S'Y'
p1737
sg45
S'Spari'
p1738
sg49
I15
sg52
F0.4708654222472384
sg55
S'line'
p1739
sg59
S'250'
p1740
sg63
I15
sg66
S'46'
p1741
ssg15
S'Garcia-33'
p1742
sbsI146
(idataset.study
Study
p1743
(dp1744
g7
I146
sg8
(dp1745
g10
F0.0
sg17
S'Sciaena umbra'
p1746
sg21
F5.4
sg24
S'Sciaena '
p1747
sg28
F0.1405492183477211
sg31
F0.0
sg34
S'3750'
p1748
sg38
F11.292
sg41
S'Y'
p1749
sg45
S'Sciae'
p1750
sg49
I15
sg52
F-0.657991717929084
sg55
S'line'
p1751
sg59
S'250'
p1752
sg63
I15
sg66
S'50'
p1753
ssg15
S'Garcia-34'
p1754
sbsI147
(idataset.study
Study
p1755
(dp1756
g7
I147
sg8
(dp1757
g10
F1.133
sg17
S'Scorpaena porcus'
p1758
sg21
F1.267
sg24
S'Scorpaena '
p1759
sg28
F0.13349068751971208
sg31
F1.121
sg34
S'3750'
p1760
sg38
F1.531
sg41
S'Y'
p1761
sg45
S'Scorp'
p1762
sg49
I15
sg52
F-0.09716610099579563
sg55
S'line'
p1763
sg59
S'250'
p1764
sg63
I15
sg66
S'25'
p1765
ssg15
S'Garcia-35'
p1766
sbsI148
(idataset.study
Study
p1767
(dp1768
g7
I148
sg8
(dp1769
g10
F0.0
sg17
S'Scorpaena scrofa'
p1770
sg21
F0.2
sg24
S'Scorpaena '
p1771
sg28
F0.14066170726671445
sg31
F0.0
sg34
S'3750'
p1772
sg38
F0.415
sg41
S'Y'
p1773
sg45
S'Scorp'
p1774
sg49
I15
sg52
F-0.6631006228340219
sg55
S'line'
p1775
sg59
S'250'
p1776
sg63
I15
sg66
S'50'
p1777
ssg15
S'Garcia-36'
p1778
sbsI149
(idataset.study
Study
p1779
(dp1780
g7
I149
sg8
(dp1781
g10
F0.0
sg17
S'Spicara maena'
p1782
sg21
F1.4
sg24
S'Spicara '
p1783
sg28
F0.13566510186319106
sg31
F0.0
sg34
S'3750'
p1784
sg38
F5.15
sg41
S'N'
p1785
sg45
S'Centr'
p1786
sg49
I15
sg52
F-0.3740402542393851
sg55
S'line'
p1787
sg59
S'250'
p1788
sg63
I15
sg66
S'25'
p1789
ssg15
S'Garcia-37'
p1790
sbsI150
(idataset.study
Study
p1791
(dp1792
g7
I150
sg8
(dp1793
g10
F0.267
sg17
S'Spondyliosoma cantharus'
p1794
sg21
F3.267
sg24
S'Spondyliosoma '
p1795
sg28
F0.15592753004385537
sg31
F0.712
sg34
S'3750'
p1796
sg38
F3.473
sg41
S'Y'
p1797
sg45
S'Spari'
p1798
sg49
I15
sg52
F-1.1643246122243238
sg55
S'line'
p1799
sg59
S'250'
p1800
sg63
I15
sg66
S'60'
p1801
ssg15
S'Garcia-38'
p1802
sbsI151
(idataset.study
Study
p1803
(dp1804
g7
I151
sg8
(dp1805
g10
F6.667
sg17
S'Symphodus roissali'
p1806
sg21
F2.0
sg24
S'Symphodus '
p1807
sg28
F0.15766819156115772
sg31
F4.953
sg34
S'3750'
p1808
sg38
F1.926
sg41
S'N'
p1809
sg45
S'Labri'
p1810
sg49
I15
sg52
F1.208342457116137
sg55
S'line'
p1811
sg59
S'250'
p1812
sg63
I15
sg66
S'17'
p1813
ssg15
S'Garcia-39'
p1814
sbsI152
(idataset.study
Study
p1815
(dp1816
g7
I152
sg8
(dp1817
g10
F42.067
sg17
S'Coris julis'
p1818
sg21
F41.133
sg24
S'Coris '
p1819
sg28
F0.13343101364731816
sg31
F7.077
sg34
S'3750'
p1820
sg38
F15.222
sg41
S'Y'
p1821
sg45
S'Labri'
p1822
sg49
I15
sg52
F0.07655598499849633
sg55
S'line'
p1823
sg59
S'250'
p1824
sg63
I15
sg66
S'25'
p1825
ssg15
S'Garcia-40'
p1826
sbsI153
(idataset.study
Study
p1827
(dp1828
g7
I153
sg8
(dp1829
g10
F0.133
sg17
S'Diplodus annularis'
p1830
sg21
F0.933
sg24
S'Diplodus '
p1831
sg28
F0.16006751774858297
sg31
F0.342
sg34
S'3750'
p1832
sg38
F0.799
sg41
S'Y'
p1833
sg45
S'Spari'
p1834
sg49
I15
sg52
F-1.2665113757542719
sg55
S'line'
p1835
sg59
S'250'
p1836
sg63
I15
sg66
S'24'
p1837
ssg15
S'Garcia-41'
p1838
sbsI154
(idataset.study
Study
p1839
(dp1840
g7
I154
sg8
(dp1841
g10
F9.2
sg17
S'Mullus surmuletus'
p1842
sg21
F0.667
sg24
S'Mullus '
p1843
sg28
F0.18733482909676305
sg31
F6.405
sg34
S'3750'
p1844
sg38
F1.233
sg41
S'Y'
p1845
sg45
S'Mulli'
p1846
sg49
I15
sg52
F1.8000249292178658
sg55
S'line'
p1847
sg59
S'250'
p1848
sg63
I15
sg66
S'40'
p1849
ssg15
S'Garcia-42'
p1850
sbsI155
(idataset.study
Study
p1851
(dp1852
g7
I155
sg8
(dp1853
g10
F25.733
sg17
S'Serranus cabrilla'
p1854
sg21
F11.6
sg24
S'Serranus '
p1855
sg28
F0.2966897047997413
sg31
F4.724
sg34
S'3750'
p1856
sg38
F4.033
sg41
S'Y'
p1857
sg45
S'Serra'
p1858
sg49
I15
sg52
F3.1307159385649284
sg55
S'line'
p1859
sg59
S'250'
p1860
sg63
I15
sg66
S'40'
p1861
ssg15
S'Garcia-43'
p1862
sbsI156
(idataset.study
Study
p1863
(dp1864
g7
I156
sg8
(dp1865
g10
F0.133
sg17
S'Serranus scriba'
p1866
sg21
F0.133
sg24
S'Serranus '
p1867
sg28
F0.13333333333333333
sg31
F0.334
sg34
S'3750'
p1868
sg38
F0.353
sg41
S'Y'
p1869
sg45
S'Serra'
p1870
sg49
I15
sg52
F0.0
sg55
S'line'
p1871
sg59
S'250'
p1872
sg63
I15
sg66
S'36'
p1873
ssg15
S'Garcia-44'
p1874
sbsI157
(idataset.study
Study
p1875
(dp1876
g7
I157
sg8
(dp1877
g10
F1.267
sg17
S'Symphodus doderleini'
p1878
sg21
F2.4
sg24
S'Symphodus '
p1879
sg28
F0.1359222762109761
sg31
F1.059
sg34
S'3750'
p1880
sg38
F3.811
sg41
S'N'
p1881
sg45
S'Labri'
p1882
sg49
I15
sg52
F-0.3941276096121235
sg55
S'line'
p1883
sg59
S'250'
p1884
sg63
I15
sg66
S'10'
p1885
ssg15
S'Garcia-45'
p1886
sbsI158
(idataset.study
Study
p1887
(dp1888
g7
I158
sg8
(dp1889
g10
F3.667
sg17
S'Symphodus mediterraneus'
p1890
sg21
F6.4
sg24
S'Symphodus '
p1891
sg28
F0.15820109881216
sg31
F2.019
sg34
S'3750'
p1892
sg38
F2.324
sg41
S'N'
p1893
sg45
S'Labri'
p1894
sg49
I15
sg52
F-1.2215015058237135
sg55
S'line'
p1895
sg59
S'250'
p1896
sg63
I15
sg66
S'18'
p1897
ssg15
S'Garcia-46'
p1898
sbsI159
(idataset.study
Study
p1899
(dp1900
g7
I159
sg8
(dp1901
g10
F8.467
sg17
S'Symphodus melanocercus'
p1902
sg21
F9.6
sg24
S'Symphodus '
p1903
sg28
F0.13414989937142774
sg31
F3.77
sg34
S'3750'
p1904
sg38
F5.949
sg41
S'N'
p1905
sg45
S'Labri'
p1906
sg49
I15
sg52
F-0.22134579798510967
sg55
S'line'
p1907
sg59
S'250'
p1908
sg63
I15
sg66
S'14'
p1909
ssg15
S'Garcia-47'
p1910
sbsI160
(idataset.study
Study
p1911
(dp1912
g7
I160
sg8
(dp1913
g10
F3.667
sg17
S'Symphodus ocellatus'
p1914
sg21
F3.2
sg24
S'Symphodus '
p1915
sg28
F0.13379479472308906
sg31
F2.304
sg34
S'3750'
p1916
sg38
F3.099
sg41
S'N'
p1917
sg45
S'Labri'
p1918
sg49
I15
sg52
F0.16639616397424192
sg55
S'line'
p1919
sg59
S'250'
p1920
sg63
I15
sg66
S'12'
p1921
ssg15
S'Garcia-48'
p1922
sbsI161
(idataset.study
Study
p1923
(dp1924
g7
I161
sg8
(dp1925
g10
F1.0
sg17
S'Symphodus rostratus'
p1926
sg21
F0.267
sg24
S'Symphodus '
p1927
sg28
F0.14718897049257176
sg31
F0.766
sg34
S'3750'
p1928
sg38
F0.798
sg41
S'N'
p1929
sg45
S'Labri'
p1930
sg49
I15
sg52
F0.9117775109939407
sg55
S'line'
p1931
sg59
S'250'
p1932
sg63
I15
sg66
S'13'
p1933
ssg15
S'Garcia-49'
p1934
sbsI162
(idataset.study
Study
p1935
(dp1936
g7
I162
sg8
(dp1937
g10
F7.067
sg17
S'Symphodus tinca'
p1938
sg21
F4.2
sg24
S'Symphodus '
p1939
sg28
F0.14245506907538835
sg31
F2.996
sg34
S'3750'
p1940
sg38
F4.411
sg41
S'Y'
p1941
sg45
S'Labri'
p1942
sg49
I15
sg52
F0.7398000706429418
sg55
S'line'
p1943
sg59
S'250'
p1944
sg63
I15
sg66
S'35'
p1945
ssg15
S'Garcia-50'
p1946
sbsI163
(idataset.study
Study
p1947
(dp1948
g7
I163
sg8
(dp1949
g10
F16.4
sg17
S'Acanthurus thompsoni'
p1950
sg21
F9.6
sg24
S'Acanthurus '
p1951
sg34
S'1800'
p1952
sg41
S'Y'
p1953
sg45
S'Acant'
p1954
sg49
I9
sg55
S'line'
p1955
sg59
S'200'
p1956
sg63
I9
sg66
S'27'
p1957
ssg15
S'Letour'
p1958
sbsI164
(idataset.study
Study
p1959
(dp1960
g7
I164
sg8
(dp1961
g10
F38.8
sg17
S'Anthias cooperi'
p1962
sg21
F17.3
sg24
S'Anthias '
p1963
sg34
S'1800'
p1964
sg41
S'Y'
p1965
sg45
S'Holoc'
p1966
sg49
I9
sg55
S'line'
p1967
sg59
S'200'
p1968
sg63
I9
sg66
S'14'
p1969
ssg15
S'Letour-2'
p1970
sbsI165
(idataset.study
Study
p1971
(dp1972
g7
I165
sg8
(dp1973
g10
F76.7
sg17
S'Anthias squamipinnis'
p1974
sg21
F34.4
sg24
S'Anthias '
p1975
sg34
S'1800'
p1976
sg41
S'Y'
p1977
sg45
S'Holoc'
p1978
sg49
I9
sg55
S'line'
p1979
sg59
S'200'
p1980
sg63
I9
sg66
S'15'
p1981
ssg15
S'Letour-3'
p1982
sbsI166
(idataset.study
Study
p1983
(dp1984
g7
I166
sg8
(dp1985
g10
F14.3
sg17
S'Caesio caerulaurea'
p1986
sg21
F75.8
sg24
S'Caesio '
p1987
sg34
S'1800'
p1988
sg41
S'Y'
p1989
sg45
S'Caesi'
p1990
sg49
I9
sg55
S'line'
p1991
sg59
S'200'
p1992
sg63
I9
sg66
S'28'
p1993
ssg15
S'Letour-4'
p1994
sbsI167
(idataset.study
Study
p1995
(dp1996
g7
I167
sg8
(dp1997
g10
F2.2
sg17
S'Caesio lunaris'
p1998
sg21
F19.0
sg24
S'Caesio '
p1999
sg34
S'1800'
p2000
sg41
S'Y'
p2001
sg45
S'Caesi'
p2002
sg49
I9
sg55
S'line'
p2003
sg59
S'200'
p2004
sg63
I9
sg66
S'30'
p2005
ssg15
S'Letour-5'
p2006
sbsI168
(idataset.study
Study
p2007
(dp2008
g7
I168
sg8
(dp2009
g10
F38.3
sg17
S'Caesio teres'
p2010
sg21
F45.0
sg24
S'Caesio '
p2011
sg34
S'1800'
p2012
sg41
S'Y'
p2013
sg45
S'Caesi'
p2014
sg49
I9
sg55
S'line'
p2015
sg59
S'200'
p2016
sg63
I9
sg66
S'31'
p2017
ssg15
S'Letour-6'
p2018
sbsI169
(idataset.study
Study
p2019
(dp2020
g7
I169
sg8
(dp2021
g10
F3.2
sg17
S'Cephalopholis spiloparea'
p2022
sg21
F2.0
sg24
S'Cephalopholis '
p2023
sg34
S'1800'
p2024
sg41
S'Y'
p2025
sg45
S'Serra'
p2026
sg49
I9
sg55
S'line'
p2027
sg59
S'200'
p2028
sg63
I9
sg66
S'21'
p2029
ssg15
S'Letour-7'
p2030
sbsI170
(idataset.study
Study
p2031
(dp2032
g7
I170
sg8
(dp2033
g10
F65.6
sg17
S'Chromis opercularis'
p2034
sg21
F16.3
sg24
S'Chromis '
p2035
sg34
S'1800'
p2036
sg41
S'Y'
p2037
sg45
S'Pomac'
p2038
sg49
I9
sg55
S'line'
p2039
sg59
S'200'
p2040
sg63
I9
sg66
S'16'
p2041
ssg15
S'Letour-8'
p2042
sbsI171
(idataset.study
Study
p2043
(dp2044
g7
I171
sg8
(dp2045
g10
F0.0
sg17
S'Epinephelus polyphekadion'
p2046
sg21
F1.2
sg24
S'Epinephelus '
p2047
sg34
S'1800'
p2048
sg41
S'Y'
p2049
sg45
S'Serra'
p2050
sg49
I9
sg55
S'line'
p2051
sg59
S'200'
p2052
sg63
I9
sg66
S'75'
p2053
ssg15
S'Letour-9'
p2054
sbsI172
(idataset.study
Study
p2055
(dp2056
g7
I172
sg8
(dp2057
g10
F5.1
sg17
S'Halichoeres spp.'
p2058
sg21
F2.3
sg24
S'Halichoeres '
p2059
sg34
S'1800'
p2060
sg41
S'Y'
p2061
sg45
S'Labri'
p2062
sg55
S'line'
p2063
sg59
S'200'
p2064
sg63
I9
sg49
I9
ssg15
S'Letour-10'
p2065
sbsI173
(idataset.study
Study
p2066
(dp2067
g7
I173
sg8
(dp2068
g10
F22.2
sg17
S'Lutjanus kasmira'
p2069
sg21
F0.2
sg24
S'Lutjanus '
p2070
sg34
S'1800'
p2071
sg41
S'Y'
p2072
sg45
S'Lutja'
p2073
sg49
I9
sg55
S'line'
p2074
sg59
S'200'
p2075
sg63
I9
sg66
S'35'
p2076
ssg15
S'Letour-11'
p2077
sbsI174
(idataset.study
Study
p2078
(dp2079
g7
I174
sg8
(dp2080
g10
F2.6
sg17
S'Monotaxis grandoculis'
p2081
sg21
F2.7
sg24
S'Monotaxis '
p2082
sg34
S'1800'
p2083
sg41
S'Y'
p2084
sg45
S'Lethr'
p2085
sg49
I9
sg55
S'line'
p2086
sg59
S'200'
p2087
sg63
I9
sg66
S'60'
p2088
ssg15
S'Letour-12'
p2089
sbsI175
(idataset.study
Study
p2090
(dp2091
g7
I175
sg8
(dp2092
g10
F18.4
sg17
S'Myripristis spp.'
p2093
sg21
F21.1
sg24
S'Myripristis '
p2094
sg34
S'1800'
p2095
sg41
S'Y'
p2096
sg45
S'Holoc'
p2097
sg55
S'line'
p2098
sg59
S'200'
p2099
sg63
I9
sg49
I9
ssg15
S'Letour-13'
p2100
sbsI176
(idataset.study
Study
p2101
(dp2102
g7
I176
sg8
(dp2103
g10
F1.9
sg17
S'Naso spp.'
p2104
sg21
F4.9
sg24
S'Naso '
p2105
sg34
S'1800'
p2106
sg41
S'Y'
p2107
sg45
S'Acant'
p2108
sg55
S'line'
p2109
sg59
S'200'
p2110
sg63
I9
sg49
I9
ssg15
S'Letour-14'
p2111
sbsI177
(idataset.study
Study
p2112
(dp2113
g7
I177
sg8
(dp2114
g10
F2.3
sg17
S'Parupeneus pleurostigma'
p2115
sg21
F0.0
sg24
S'Parupeneus '
p2116
sg34
S'1800'
p2117
sg41
S'N'
p2118
sg45
S'Mulli'
p2119
sg49
I9
sg55
S'line'
p2120
sg59
S'200'
p2121
sg63
I9
sg66
S'33'
p2122
ssg15
S'Letour-15'
p2123
sbsI178
(idataset.study
Study
p2124
(dp2125
g7
I178
sg8
(dp2126
g10
F0.1
sg17
S'Plectropomus laevis'
p2127
sg21
F0.7
sg24
S'Plectropomus '
p2128
sg34
S'1800'
p2129
sg41
S'Y'
p2130
sg45
S'Serra'
p2131
sg49
I9
sg55
S'line'
p2132
sg59
S'200'
p2133
sg63
I9
sg66
S'110'
p2134
ssg15
S'Letour-16'
p2135
sbsI179
(idataset.study
Study
p2136
(dp2137
g7
I179
sg8
(dp2138
g10
F26.7
sg17
S'Pterocaesio tile'
p2139
sg21
F115.1
sg24
S'Pterocaesio '
p2140
sg34
S'1800'
p2141
sg41
S'Y'
p2142
sg45
S'Caesi'
p2143
sg49
I9
sg55
S'line'
p2144
sg59
S'200'
p2145
sg63
I9
sg66
S'25'
p2146
ssg15
S'Letour-17'
p2147
sbsI180
(idataset.study
Study
p2148
(dp2149
g7
I180
sg8
(dp2150
g10
F4.5
sg17
S'Sargocentron spp.'
p2151
sg21
F1.2
sg24
S'Sargocentron '
p2152
sg34
S'1800'
p2153
sg41
S'Y'
p2154
sg45
S'Holoc'
p2155
sg55
S'line'
p2156
sg59
S'200'
p2157
sg63
I9
sg49
I9
ssg15
S'Letour-18'
p2158
sbsI181
(idataset.study
Study
p2159
(dp2160
g7
I181
sg8
(dp2161
g10
F6.0
sg17
S'Scarus caudovittatus'
p2162
sg21
F2.1
sg24
S'Scarus '
p2163
sg34
S'1800'
p2164
sg41
S'Y'
p2165
sg45
S'Scari'
p2166
sg55
S'line'
p2167
sg59
S'200'
p2168
sg63
I9
sg49
I9
ssg15
S'Letour-19'
p2169
sbsI182
(idataset.study
Study
p2170
(dp2171
g7
I182
sg8
(dp2172
g10
F0.0
sg17
S'Aethaloperca rogaa'
p2173
sg21
F1.2
sg24
S'Aethaloperca '
p2174
sg34
S'1800'
p2175
sg41
S'Y'
p2176
sg45
S'Serra'
p2177
sg49
I9
sg55
S'line'
p2178
sg59
S'200'
p2179
sg63
I9
sg66
S'60'
p2180
ssg15
S'Letour-20'
p2181
sbsI183
(idataset.study
Study
p2182
(dp2183
g7
I183
sg8
(dp2184
g10
F0.3
sg17
S'Cephalopholis argus'
p2185
sg21
F4.8
sg24
S'Cephalopholis '
p2186
sg34
S'1800'
p2187
sg41
S'Y'
p2188
sg45
S'Serra'
p2189
sg49
I9
sg55
S'line'
p2190
sg59
S'200'
p2191
sg63
I9
sg66
S'40'
p2192
ssg15
S'Letour-21'
p2193
sbsI184
(idataset.study
Study
p2194
(dp2195
g7
I184
sg8
(dp2196
g10
F0.8
sg17
S'Parupeneus barberinus'
p2197
sg21
F0.8
sg24
S'Parupeneus '
p2198
sg34
S'1800'
p2199
sg41
S'N'
p2200
sg45
S'Mulli'
p2201
sg49
I9
sg55
S'line'
p2202
sg59
S'200'
p2203
sg63
I9
sg66
S'50'
p2204
ssg15
S'Letour-22'
p2205
sbsI185
(idataset.study
Study
p2206
(dp2207
g7
I185
sg8
(dp2208
g10
F4.4
sg17
S'Parupeneus macronema'
p2209
sg21
F1.2
sg24
S'Parupeneus '
p2210
sg34
S'1800'
p2211
sg41
S'N'
p2212
sg45
S'Mulli'
p2213
sg49
I9
sg55
S'line'
p2214
sg59
S'200'
p2215
sg63
I9
sg66
S'32'
p2216
ssg15
S'Letour-23'
p2217
sbsI186
(idataset.study
Study
p2218
(dp2219
g7
I186
sg8
(dp2220
g10
F5.7
sg17
S'Acanthurus nigricauda'
p2221
sg21
F2.1
sg24
S'Acanthurus '
p2222
sg34
S'1800'
p2223
sg41
S'Y'
p2224
sg45
S'Acant'
p2225
sg49
I9
sg55
S'line'
p2226
sg59
S'200'
p2227
sg63
I9
sg66
S'40'
p2228
ssg15
S'Letour-24'
p2229
sbsI187
(idataset.study
Study
p2230
(dp2231
g7
I187
sg8
(dp2232
g10
F20.3
sg17
S'Chromis viridis'
p2233
sg21
F7.6
sg24
S'Chromis '
p2234
sg34
S'1800'
p2235
sg41
S'Y'
p2236
sg45
S'Pomac'
p2237
sg49
I9
sg55
S'line'
p2238
sg59
S'200'
p2239
sg63
I9
sg66
S'9'
p2240
ssg15
S'Letour-25'
p2241
sbsI188
(idataset.study
Study
p2242
(dp2243
g7
I188
sg8
(dp2244
g10
F21.4
sg17
S'Dascyllus carneus'
p2245
sg21
F12.7
sg24
S'Dascyllus '
p2246
sg34
S'1800'
p2247
sg41
S'Y'
p2248
sg45
S'Pomac'
p2249
sg49
I9
sg55
S'line'
p2250
sg59
S'200'
p2251
sg63
I9
sg66
S'6'
p2252
ssg15
S'Letour-26'
p2253
sbsI189
(idataset.study
Study
p2254
(dp2255
g7
I189
sg8
(dp2256
g10
F0.1
sg17
S'Epibulus insidiator'
p2257
sg21
F1.3
sg24
S'Epibulus '
p2258
sg34
S'1800'
p2259
sg41
S'Y'
p2260
sg45
S'Labri'
p2261
sg49
I9
sg55
S'line'
p2262
sg59
S'200'
p2263
sg63
I9
sg66
S'35'
p2264
ssg15
S'Letour-27'
p2265
sbsI190
(idataset.study
Study
p2266
(dp2267
g7
I190
sg8
(dp2268
g10
F2.9
sg17
S'Cheilinus fasciatus'
p2269
sg21
F3.6
sg24
S'Cheilinus '
p2270
sg34
S'1800'
p2271
sg41
S'Y'
p2272
sg45
S'Labri'
p2273
sg49
I9
sg55
S'line'
p2274
sg59
S'200'
p2275
sg63
I9
sg66
S'36'
p2276
ssg15
S'Letour-28'
p2277
sbsI191
(idataset.study
Study
p2278
(dp2279
g7
I191
sg8
(dp2280
g10
F19.6
sg17
S'Chlorurus gibbus'
p2281
sg21
F10.0
sg24
S'Chlorurus'
p2282
sg34
S'1800'
p2283
sg41
S'Y'
p2284
sg45
S'Scari'
p2285
sg49
I9
sg55
S'line'
p2286
sg59
S'200'
p2287
sg63
I9
sg66
S'70'
p2288
ssg15
S'Letour-29'
p2289
sbsI192
(idataset.study
Study
p2290
(dp2291
g7
I192
sg8
(dp2292
g10
F19.6
sg17
S'Chlorurus sordidus'
p2293
sg21
F10.0
sg24
S'Chlorurus'
p2294
sg34
S'1800'
p2295
sg41
S'Y'
p2296
sg45
S'Scari'
p2297
sg49
I9
sg55
S'line'
p2298
sg59
S'200'
p2299
sg63
I9
sg66
S'35'
p2300
ssg15
S'Letour-30'
p2301
sbsI193
(idataset.study
Study
p2302
(dp2303
g7
I193
sg8
(dp2304
g10
F93.9
sg17
S'Chromis ternatensis'
p2305
sg21
F99.6
sg24
S'Chromis '
p2306
sg34
S'1800'
p2307
sg41
S'Y'
p2308
sg45
S'Pomac'
p2309
sg49
I9
sg55
S'line'
p2310
sg59
S'200'
p2311
sg63
I9
sg66
S'11'
p2312
ssg15
S'Letour-31'
p2313
sbsI194
(idataset.study
Study
p2314
(dp2315
g7
I194
sg8
(dp2316
g10
F147.7
sg17
S'Chromis weberi'
p2317
sg21
F45.9
sg24
S'Chromis '
p2318
sg34
S'1800'
p2319
sg41
S'Y'
p2320
sg45
S'Pomac'
p2321
sg49
I9
sg55
S'line'
p2322
sg59
S'200'
p2323
sg63
I9
sg66
S'12'
p2324
ssg15
S'Letour-32'
p2325
sbsI195
(idataset.study
Study
p2326
(dp2327
g7
I195
sg8
(dp2328
g10
F17.7
sg17
S'Ctenochaetus striatus'
p2329
sg21
F10.4
sg24
S'Ctenochaetus '
p2330
sg34
S'1800'
p2331
sg41
S'Y'
p2332
sg45
S'Acant'
p2333
sg49
I9
sg55
S'line'
p2334
sg59
S'200'
p2335
sg63
I9
sg66
S'26'
p2336
ssg15
S'Letour-33'
p2337
sbsI196
(idataset.study
Study
p2338
(dp2339
g7
I196
sg8
(dp2340
g10
F1.5
sg17
S'Scarus rubroviolaceus'
p2341
sg21
F0.6
sg24
S'Scarus '
p2342
sg34
S'1800'
p2343
sg41
S'Y'
p2344
sg45
S'Scari'
p2345
sg49
I9
sg55
S'line'
p2346
sg59
S'200'
p2347
sg63
I9
sg66
S'75'
p2348
ssg15
S'Letour-34'
p2349
sbsI197
(idataset.study
Study
p2350
(dp2351
g7
I197
sg8
(dp2352
g10
F0.0
sg17
S'Abudefduf melanopus'
p2353
sg21
F0.13
sg24
S'Abudefduf '
p2354
sg28
F0.5596293125926961
sg31
F0.0
sg34
S'7500'
p2355
sg38
F0.045
sg45
S'Pomac'
p2356
sg49
I20
sg52
F-4.957596066195971
sg55
S'line'
p2357
sg59
S'500'
p2358
sg63
I10
sg66
S'18'
p2359
ssg15
S'McC99'
p2360
sbsI198
(idataset.study
Study
p2361
(dp2362
g7
I198
sg8
(dp2363
g10
F0.0
sg17
S'Balistoides viridiscens'
p2364
sg21
F0.03
sg24
S'Balistoides '
p2365
sg28
F0.41138770428212884
sg31
F0.0
sg34
S'7500'
p2366
sg38
F0.013
sg45
S'Balis'
p2367
sg49
I20
sg52
F-3.960209875363644
sg55
S'line'
p2368
sg59
S'500'
p2369
sg63
I10
sg66
S'75'
p2370
ssg15
S'McC99-2'
p2371
sbsI199
(idataset.study
Study
p2372
(dp2373
g7
I199
sg8
(dp2374
g10
F0.0
sg17
S'Cheilinus mentalis'
p2375
sg21
F0.0
sg24
S'Cheilinus '
p2376
sg28
F0.15000000000000002
sg31
F0.142
sg34
S'7500'
p2377
sg38
F0.0
sg45
S'Labri'
p2378
sg49
I20
sg52
F0.0
sg55
S'line'
p2379
sg59
S'500'
p2380
sg63
I10
sg66
S'20'
p2381
ssg15
S'McC99-3'
p2382
sbsI200
(idataset.study
Study
p2383
(dp2384
g7
I200
sg8
(dp2385
g10
F1.45
sg17
S'Cheilinus oxycephalus'
p2386
sg21
F0.0
sg24
S'Cheilinus '
p2387
sg28
F1.7645658634385888
sg31
F0.174
sg34
S'7500'
p2388
sg38
F0.0
sg45
S'Labri'
p2389
sg49
I20
sg52
F9.842456594078296
sg55
S'line'
p2390
sg59
S'500'
p2391
sg63
I10
sg66
S'17'
p2392
ssg15
S'McC99-4'
p2393
sbsI201
(idataset.study
Study
p2394
(dp2395
g7
I201
sg8
(dp2396
g10
F0.15
sg17
S'Cirrhilabrus exquisitus'
p2397
sg21
F0.0
sg24
S'Cirrhalabrus '
p2398
sg28
F0.38681273868451904
sg31
F0.047
sg34
S'7500'
p2399
sg38
F0.0
sg45
S'Labri'
p2400
sg49
I20
sg52
F3.7694514615618995
sg55
S'line'
p2401
sg59
S'500'
p2402
sg63
I10
sg66
S'12'
p2403
ssg15
S'McC99-5'
p2404
sbsI202
(idataset.study
Study
p2405
(dp2406
g7
I202
sg8
(dp2407
g10
F0.0
sg17
S'Dascyllus reticulatus'
p2408
sg21
F0.27
sg24
S'Dascyllus '
p2409
sg28
F0.1803876266388449
sg31
F0.221
sg34
S'7500'
p2410
sg38
F0.121
sg45
S'Pomac'
p2411
sg49
I20
sg52
F-1.3502805628204426
sg55
S'line'
p2412
sg59
S'500'
p2413
sg63
I10
sg66
S'8'
p2414
ssg15
S'McC99-6'
p2415
sbsI203
(idataset.study
Study
p2416
(dp2417
g7
I203
sg8
(dp2418
g10
F0.05
sg17
S'Hologymnosus annulatus'
p2419
sg21
F0.0
sg24
S'Hologymnosus '
p2420
sg28
F0.17631252652050214
sg31
F0.047
sg34
S'7500'
p2421
sg38
F0.0
sg45
S'Labri'
p2422
sg49
I20
sg52
F1.2564838205206335
sg55
S'line'
p2423
sg59
S'500'
p2424
sg63
I10
sg66
S'40'
p2425
ssg15
S'McC99-7'
p2426
sbsI204
(idataset.study
Study
p2427
(dp2428
g7
I204
sg8
(dp2429
g10
F0.3
sg17
S'Novaculichthys taeniourus'
p2430
sg21
F0.1
sg24
S'Novaculichthys '
p2431
sg28
F0.2710418397563512
sg31
F0.082
sg34
S'7500'
p2432
sg38
F0.045
sg45
S'Labri'
p2433
sg49
I20
sg52
F2.6949045224981667
sg55
S'line'
p2434
sg59
S'500'
p2435
sg63
I10
sg66
S'25'
p2436
ssg15
S'McC99-8'
p2437
sbsI205
(idataset.study
Study
p2438
(dp2439
g7
I205
sg8
(dp2440
g10
F0.1
sg17
S'Plectroglyphidodon johnstonianus'
p2441
sg21
F1.0
sg24
S'Plectroglyphidodon '
p2442
sg28
F0.15079368063603432
sg31
F4.867
sg34
S'7500'
p2443
sg38
F0.291
sg45
S'Pomac'
p2444
sg49
I20
sg52
F-0.2182219928468653
sg55
S'line'
p2445
sg59
S'500'
p2446
sg63
I10
sg66
S'10'
p2447
ssg15
S'McC99-9'
p2448
sbsI206
(idataset.study
Study
p2449
(dp2450
g7
I206
sg8
(dp2451
g10
F83.75
sg17
S'Plectroglyphidodon lacrimatus'
p2452
sg21
F16.65
sg24
S'Plectroglyphidodon '
p2453
sg28
F2.0560944815405553
sg31
F7.365
sg34
S'7500'
p2454
sg38
F1.194
sg45
S'Pomac'
p2455
sg49
I20
sg52
F10.694188556988946
sg55
S'line'
p2456
sg59
S'500'
p2457
sg63
I10
sg66
S'12'
p2458
ssg15
S'McC99-10'
p2459
sbsI207
(idataset.study
Study
p2460
(dp2461
g7
I207
sg8
(dp2462
g10
F0.0
sg17
S'Pomacentrus pulcherrimus'
p2463
sg21
F0.33
sg24
S'Pomacentrus '
p2464
sg28
F0.16268032379620287
sg31
F0.443
sg34
S'7500'
p2465
sg38
F0.085
sg45
S'Pomac'
p2466
sg49
I20
sg52
F-0.8722496361547938
sg55
S'line'
p2467
sg59
S'500'
p2468
sg63
I10
sg66
S'10'
p2469
ssg15
S'McC99-11'
p2470
sbsI208
(idataset.study
Study
p2471
(dp2472
g7
I208
sg8
(dp2473
g10
F0.15
sg17
S'Pygoplites diacanthus'
p2474
sg21
F0.1
sg24
S'Pygoplites '
p2475
sg28
F0.17661115784559023
sg31
F0.035
sg34
S'7500'
p2476
sg38
F0.045
sg45
S'Pomaa'
p2477
sg49
I20
sg52
F1.263593870963061
sg55
S'line'
p2478
sg59
S'500'
p2479
sg63
I10
sg66
S'25'
p2480
ssg15
S'McC99-12'
p2481
sbsI209
(idataset.study
Study
p2482
(dp2483
g7
I209
sg8
(dp2484
g10
F0.25
sg17
S'Stegastes fasciolatus'
p2485
sg21
F0.0
sg24
S'Stegastes '
p2486
sg28
F0.3828327635146178
sg31
F0.079
sg34
S'7500'
p2487
sg38
F0.0
sg45
S'Pomac'
p2488
sg49
I20
sg52
F3.7376417445866945
sg55
S'line'
p2489
sg59
S'500'
p2490
sg63
I10
sg66
S'15'
p2491
ssg15
S'McC99-13'
p2492
sbsI210
(idataset.study
Study
p2493
(dp2494
g7
I210
sg8
(dp2495
g10
F4.5
sg17
S'Stegastes lividus'
p2496
sg21
F0.0
sg24
S'Stegastes '
p2497
sg28
F0.6760911703206698
sg31
F0.946
sg34
S'7500'
p2498
sg38
F0.0
sg45
S'Pomac'
p2499
sg49
I20
sg52
F5.618315603385073
sg55
S'line'
p2500
sg59
S'500'
p2501
sg63
I10
sg66
S'13'
p2502
ssg15
S'McC99-14'
p2503
sbsI211
(idataset.study
Study
p2504
(dp2505
g7
I211
sg8
(dp2506
g10
F23.7
sg17
S'Thalassoma amblycephalum'
p2507
sg21
F38.13
sg24
S'Thalassoma '
p2508
sg28
F0.32986631470209055
sg31
F2.384
sg34
S'7500'
p2509
sg38
F6.695
sg45
S'Labri'
p2510
sg49
I20
sg52
F-3.2851147441338227
sg55
S'line'
p2511
sg59
S'500'
p2512
sg63
I10
sg66
S'14'
p2513
ssg15
S'McC99-15'
p2514
sbsI212
(idataset.study
Study
p2515
(dp2516
g7
I212
sg8
(dp2517
g10
F8.2
sg17
S'Abudefduf sexfasciatus'
p2518
sg21
F18.67
sg24
S'Abudefduf '
p2519
sg28
F0.24055393580487533
sg31
F0.689
sg34
S'7500'
p2520
sg38
F7.643
sg45
S'Pomac'
p2521
sg49
I20
sg52
F-2.3309303181975474
sg55
S'line'
p2522
sg59
S'500'
p2523
sg63
I10
sg66
S'17'
p2524
ssg15
S'McC99-16'
p2525
sbsI213
(idataset.study
Study
p2526
(dp2527
g7
I213
sg8
(dp2528
g10
F4.3
sg17
S'Abudefduf sparoides'
p2529
sg21
F4.03
sg24
S'Abudefduf '
p2530
sg28
F0.150892314488263
sg31
F0.626
sg34
S'7500'
p2531
sg38
F1.784
sg45
S'Pomac'
p2532
sg49
I20
sg52
F0.231384678178524
sg55
S'line'
p2533
sg59
S'500'
p2534
sg63
I10
sg66
S'15'
p2535
ssg15
S'McC99-17'
p2536
sbsI214
(idataset.study
Study
p2537
(dp2538
g7
I214
sg8
(dp2539
g10
F6.6
sg17
S'Abudefduf vaigiensis'
p2540
sg21
F8.4
sg24
S'Abudefduf '
p2541
sg28
F0.15937763312750497
sg31
F1.24
sg34
S'7500'
p2542
sg38
F3.703
sg45
S'Pomac'
p2543
sg49
I20
sg52
F-0.7501053177056524
sg55
S'line'
p2544
sg59
S'500'
p2545
sg63
I10
sg66
S'20'
p2546
ssg15
S'McC99-18'
p2547
sbsI215
(idataset.study
Study
p2548
(dp2549
g7
I215
sg8
(dp2550
g10
F0.06
sg17
S'Acanthurus dussumieri'
p2551
sg21
F0.35
sg24
S'Acanthurus '
p2552
sg28
F0.31244325763845515
sg31
F0.019
sg34
S'7500'
p2553
sg38
F0.157
sg45
S'Acant'
p2554
sg49
I20
sg52
F-3.1219537886245705
sg55
S'line'
p2555
sg59
S'500'
p2556
sg63
I10
sg66
S'55'
p2557
ssg15
S'McC99-19'
p2558
sbsI216
(idataset.study
Study
p2559
(dp2560
g7
I216
sg8
(dp2561
g10
F0.17
sg17
S'Acanthurus xanthopterus'
p2562
sg21
F0.05
sg24
S'Acanthurus '
p2563
sg28
F0.15921561155775524
sg31
F0.19
sg34
S'7500'
p2564
sg38
F0.022
sg45
S'Acant'
p2565
sg49
I20
sg52
F0.743597131157264
sg55
S'line'
p2566
sg59
S'500'
p2567
sg63
I10
sg66
S'27'
p2568
ssg15
S'McC99-20'
p2569
sbsI217
(idataset.study
Study
p2570
(dp2571
g7
I217
sg8
(dp2572
g10
F7.4
sg17
S'Amphiprion akallopisos'
p2573
sg21
F3.97
sg24
S'Amphiprion '
p2574
sg28
F0.3098173525533595
sg31
F0.914
sg34
S'7500'
p2575
sg38
F1.36
sg45
S'Pomac'
p2576
sg49
I20
sg52
F3.0966176956804934
sg55
S'line'
p2577
sg59
S'500'
p2578
sg63
I10
sg66
S'11'
p2579
ssg15
S'McC99-21'
p2580
sbsI218
(idataset.study
Study
p2581
(dp2582
g7
I218
sg8
(dp2583
g10
F4.6
sg17
S'Amphiprion allardi'
p2584
sg21
F0.93
sg24
S'Amphiprion '
p2585
sg28
F0.36537689265737977
sg31
F1.202
sg34
S'7500'
p2586
sg38
F0.139
sg45
S'Pomac'
p2587
sg49
I20
sg52
F3.5948036885820045
sg55
S'line'
p2588
sg59
S'500'
p2589
sg63
I10
sg66
S'15'
p2590
ssg15
S'McC99-22'
p2591
sbsI219
(idataset.study
Study
p2592
(dp2593
g7
I219
sg8
(dp2594
g10
F0.45
sg17
S'Anampses caeruleopunctatus'
p2595
sg21
F0.77
sg24
S'Anampses '
p2596
sg28
F0.31277333771949656
sg31
F0.085
sg34
S'7500'
p2597
sg38
F0.125
sg45
S'Labri'
p2598
sg49
I20
sg52
F-3.1251240396454336
sg55
S'line'
p2599
sg59
S'500'
p2600
sg63
I10
sg66
S'15'
p2601
ssg15
S'McC99-23'
p2602
sbsI220
(idataset.study
Study
p2603
(dp2604
g7
I220
sg8
(dp2605
g10
F1.0
sg17
S'Anampses twistii'
p2606
sg21
F0.4
sg24
S'Anampses '
p2607
sg28
F0.9423641600452771
sg31
F0.098
sg34
S'7500'
p2608
sg38
F0.045
sg45
S'Labri'
p2609
sg49
I20
sg52
F6.89505979689202
sg55
S'line'
p2610
sg59
S'500'
p2611
sg63
I10
sg66
S'18'
p2612
ssg15
S'McC99-24'
p2613
sbsI221
(idataset.study
Study
p2614
(dp2615
g7
I221
sg8
(dp2616
g10
F0.17
sg17
S'Balistapus undulatus'
p2617
sg21
F1.18
sg24
S'Balistapus '
p2618
sg28
F1.9040844654089426
sg31
F0.025
sg34
S'7500'
p2619
sg38
F0.165
sg45
S'Balis'
p2620
sg49
I20
sg52
F-10.258901886875444
sg55
S'line'
p2621
sg59
S'500'
p2622
sg63
I10
sg66
S'30'
p2623
ssg15
S'McC99-25'
p2624
sbsI222
(idataset.study
Study
p2625
(dp2626
g7
I222
sg8
(dp2627
g10
F2.1
sg17
S'Centropyge multispinis'
p2628
sg21
F2.8
sg24
S'Centropyge '
p2629
sg28
F0.2160243916615821
sg31
F0.402
sg34
S'7500'
p2630
sg38
F0.152
sg45
S'Pomaa'
p2631
sg49
I20
sg52
F-1.990342558379066
sg55
S'line'
p2632
sg59
S'500'
p2633
sg63
I10
sg66
S'9'
p2634
ssg15
S'McC99-26'
p2635
sbsI223
(idataset.study
Study
p2636
(dp2637
g7
I223
sg8
(dp2638
g10
F0.0
sg17
S'Chaetodon falcula'
p2639
sg21
F0.33
sg24
S'Chaetodon '
p2640
sg28
F0.889808604133599
sg31
F0.0
sg34
S'7500'
p2641
sg38
F0.085
sg45
S'Chaet'
p2642
sg49
I20
sg52
F-6.662470731494131
sg55
S'line'
p2643
sg59
S'500'
p2644
sg63
I10
sg66
S'20'
p2645
ssg15
S'McC99-27'
p2646
sbsI224
(idataset.study
Study
p2647
(dp2648
g7
I224
sg8
(dp2649
g10
F0.0
sg17
S'Chaetodon guttatissimus'
p2650
sg21
F0.83
sg24
S'Chaetodon '
p2651
sg28
F1.4111772306374712
sg31
F0.032
sg34
S'7500'
p2652
sg38
F0.157
sg45
S'Chaet'
p2653
sg49
I20
sg52
F-8.698886930995728
sg55
S'line'
p2654
sg59
S'500'
p2655
sg63
I10
sg66
S'11'
p2656
ssg15
S'McC99-28'
p2657
sbsI225
(idataset.study
Study
p2658
(dp2659
g7
I225
sg8
(dp2660
g10
F0.65
sg17
S'Chaetodon kleinii'
p2661
sg21
F0.2
sg24
S'Chaetodon '
p2662
sg28
F0.41994208189375204
sg31
F0.117
sg34
S'7500'
p2663
sg38
F0.089
sg45
S'Chaet'
p2664
sg49
I20
sg52
F4.024490640270533
sg55
S'line'
p2665
sg59
S'500'
p2666
sg63
I10
sg66
S'14'
p2667
ssg15
S'McC99-29'
p2668
sbsI226
(idataset.study
Study
p2669
(dp2670
g7
I226
sg8
(dp2671
g10
F0.3
sg17
S'Chaetodon zanzibarensis'
p2672
sg21
F0.27
sg24
S'Chaetodon '
p2673
sg28
F0.15283097423889258
sg31
F0.063
sg34
S'7500'
p2674
sg38
F0.085
sg45
S'Chaet'
p2675
sg49
I20
sg52
F0.41213887748373645
sg55
S'line'
p2676
sg59
S'500'
p2677
sg63
I10
sg66
S'15'
p2678
ssg15
S'McC99-30'
p2679
sbsI227
(idataset.study
Study
p2680
(dp2681
g7
I227
sg8
(dp2682
g10
F0.9
sg17
S'Cheilio inermis'
p2683
sg21
F0.18
sg24
S'Cheilio '
p2684
sg28
F0.547117735795726
sg31
F0.168
sg34
S'7500'
p2685
sg38
F0.067
sg45
S'Labri'
p2686
sg49
I20
sg52
F4.881297383661803
sg55
S'line'
p2687
sg59
S'500'
p2688
sg63
I10
sg66
S'50'
p2689
ssg15
S'McC99-31'
p2690
sbsI228
(idataset.study
Study
p2691
(dp2692
g7
I228
sg8
(dp2693
g10
F28.3
sg17
S'Chromis dimidiata'
p2694
sg21
F40.83
sg24
S'Chromis '
p2695
sg28
F0.19479994898224634
sg31
F6.208
sg34
S'7500'
p2696
sg38
F9.521
sg45
S'Pomac'
p2697
sg49
I20
sg52
F-1.639511189023966
sg55
S'line'
p2698
sg59
S'500'
p2699
sg63
I10
sg66
S'9'
p2700
ssg15
S'McC99-32'
p2701
sbsI229
(idataset.study
Study
p2702
(dp2703
g7
I229
sg8
(dp2704
g10
F7.8
sg17
S'Chromis nigrura'
p2705
sg21
F26.97
sg24
S'Chromis '
p2706
sg28
F0.6430829758140528
sg31
F1.521
sg34
S'7500'
p2707
sg38
F5.63
sg45
S'Pomac'
p2708
sg49
I20
sg52
F-5.439207529488387
sg55
S'line'
p2709
sg59
S'500'
p2710
sg63
I10
sg66
S'6'
p2711
ssg15
S'McC99-33'
p2712
sbsI230
(idataset.study
Study
p2713
(dp2714
g7
I230
sg8
(dp2715
g10
F0.0
sg17
S'Chrysiptera biocellata'
p2716
sg21
F0.63
sg24
S'Chrysiptera '
p2717
sg28
F0.6258250344312475
sg31
F0.016
sg34
S'7500'
p2718
sg38
F0.201
sg45
S'Pomac'
p2719
sg49
I20
sg52
F-5.343173407805033
sg55
S'line'
p2720
sg59
S'500'
p2721
sg63
I10
sg66
S'11'
p2722
ssg15
S'McC99-34'
p2723
sbsI231
(idataset.study
Study
p2724
(dp2725
g7
I231
sg8
(dp2726
g10
F0.05
sg17
S'Chrysiptera glauca'
p2727
sg21
F0.0
sg24
S'Chrysiptera '
p2728
sg31
F0.0
sg34
S'7500'
p2729
sg38
F0.0
sg45
S'Pomac'
p2730
sg49
I20
sg55
S'line'
p2731
sg59
S'500'
p2732
sg63
I10
sg66
S'11'
p2733
ssg15
S'McC99-35'
p2734
sbsI232
(idataset.study
Study
p2735
(dp2736
g7
I232
sg8
(dp2737
g10
F0.0
sg17
S'Chrysiptera leucopoma'
p2738
sg21
F0.1
sg24
S'Chrysiptera '
p2739
sg28
F0.15007967090505503
sg31
F1.708
sg34
S'7500'
p2740
sg38
F0.045
sg45
S'Pomac'
p2741
sg49
I20
sg52
F-0.06913938315678234
sg55
S'line'
p2742
sg59
S'500'
p2743
sg63
I10
sg66
S'8'
p2744
ssg15
S'McC99-36'
p2745
sbsI233
(idataset.study
Study
p2746
(dp2747
g7
I233
sg8
(dp2748
g10
F34.25
sg17
S'Chrysiptera unimaculata'
p2749
sg21
F11.62
sg24
S'Chrysiptera '
p2750
sg28
F0.9453889845678786
sg31
F3.077
sg34
S'7500'
p2751
sg38
F3.408
sg45
S'Pomac'
p2752
sg49
I20
sg52
F6.908208094294259
sg55
S'line'
p2753
sg59
S'500'
p2754
sg63
I10
sg66
S'8'
p2755
ssg15
S'McC99-37'
p2756
sbsI234
(idataset.study
Study
p2757
(dp2758
g7
I234
sg8
(dp2759
g10
F0.9
sg17
S'Coris caudimacula'
p2760
sg21
F0.15
sg24
S'Coris '
p2761
sg28
F0.6544893448123076
sg31
F0.158
sg34
S'7500'
p2762
sg38
F0.045
sg45
S'Labri'
p2763
sg49
I20
sg52
F5.501759781082636
sg55
S'line'
p2764
sg59
S'500'
p2765
sg63
I10
sg66
S'20'
p2766
ssg15
S'McC99-38'
p2767
sbsI235
(idataset.study
Study
p2768
(dp2769
g7
I235
sg8
(dp2770
g10
F0.05
sg17
S'Coris gaimard'
p2771
sg21
F0.22
sg24
S'Coris '
p2772
sg28
F0.5603907954495133
sg31
F0.016
sg34
S'7500'
p2773
sg38
F0.054
sg45
S'Labri'
p2774
sg49
I20
sg52
F-4.962201903084033
sg55
S'line'
p2775
sg59
S'500'
p2776
sg63
I10
sg66
S'38'
p2777
ssg15
S'McC99-39'
p2778
sbsI236
(idataset.study
Study
p2779
(dp2780
g7
I236
sg8
(dp2781
g10
F47.65
sg17
S'Dascyllus aruanus'
p2782
sg21
F2.3
sg24
S'Dascyllus '
p2783
sg28
F0.6263954078635786
sg31
F9.996
sg34
S'7500'
p2784
sg38
F0.975
sg45
S'Pomac'
p2785
sg49
I20
sg52
F5.346374890691329
sg55
S'line'
p2786
sg59
S'500'
p2787
sg63
I10
sg66
S'8'
p2788
ssg15
S'McC99-40'
p2789
sbsI237
(idataset.study
Study
p2790
(dp2791
g7
I237
sg8
(dp2792
g10
F19.45
sg17
S'Dascyllus trimaculatus'
p2793
sg21
F2.4
sg24
S'Dascyllus '
p2794
sg28
F0.6375567244556153
sg31
F3.675
sg34
S'7500'
p2795
sg38
F0.868
sg45
S'Pomac'
p2796
sg49
I20
sg52
F5.408641554710103
sg55
S'line'
p2797
sg59
S'500'
p2798
sg63
I10
sg66
S'14'
p2799
ssg15
S'McC99-41'
p2800
sbsI238
(idataset.study
Study
p2801
(dp2802
g7
I238
sg8
(dp2803
g10
F0.0
sg17
S'Diodon hystrix'
p2804
sg21
F0.13
sg24
S'Diodon '
p2805
sg28
F0.3965812598098126
sg31
F0.0
sg34
S'7500'
p2806
sg38
F0.058
sg45
S'Diodo'
p2807
sg49
I20
sg52
F-3.846410741014115
sg55
S'line'
p2808
sg59
S'500'
p2809
sg63
I10
sg66
S'90'
p2810
ssg15
S'McC99-42'
p2811
sbsI239
(idataset.study
Study
p2812
(dp2813
g7
I239
sg8
(dp2814
g10
F0.05
sg17
S'Diodon liturosus'
p2815
sg21
F0.03
sg24
S'Diodon '
p2816
sg28
F0.17767393705477202
sg31
F0.016
sg34
S'7500'
p2817
sg38
F0.013
sg45
S'Diodo'
p2818
sg49
I20
sg52
F1.2885791490189185
sg55
S'line'
p2819
sg59
S'500'
p2820
sg63
I10
sg66
S'45'
p2821
ssg15
S'McC99-43'
p2822
sbsI240
(idataset.study
Study
p2823
(dp2824
g7
I240
sg8
(dp2825
g10
F0.55
sg17
S'Halichoeres marginatus'
p2826
sg21
F0.0
sg24
S'Halichoeres '
p2827
sg28
F0.49879234780492426
sg31
F0.142
sg34
S'7500'
p2828
sg38
F0.0
sg45
S'Labri'
p2829
sg49
I20
sg52
F4.574662924008222
sg55
S'line'
p2830
sg59
S'500'
p2831
sg63
I10
sg66
S'17'
p2832
ssg15
S'McC99-44'
p2833
sbsI241
(idataset.study
Study
p2834
(dp2835
g7
I241
sg8
(dp2836
g10
F0.1
sg17
S'Halichoeres nebulosus'
p2837
sg21
F0.0
sg24
S'Halichoeres '
p2838
sg28
F0.3770483245460515
sg31
F0.032
sg34
S'7500'
p2839
sg38
F0.0
sg45
S'Labri'
p2840
sg49
I20
sg52
F3.6909212227793606
sg55
S'line'
p2841
sg59
S'500'
p2842
sg63
I10
sg66
S'12'
p2843
ssg15
S'McC99-45'
p2844
sbsI242
(idataset.study
Study
p2845
(dp2846
g7
I242
sg8
(dp2847
g10
F2.65
sg17
S'Labrichthys unilineatus'
p2848
sg21
F4.75
sg24
S'Labrichthys '
p2849
sg28
F0.2670995622354738
sg31
F0.424
sg34
S'7500'
p2850
sg38
F1.212
sg45
S'Labri'
p2851
sg49
I20
sg52
F-2.6506553405013693
sg55
S'line'
p2852
sg59
S'500'
p2853
sg63
I10
sg66
S'17'
p2854
ssg15
S'McC99-46'
p2855
sbsI243
(idataset.study
Study
p2856
(dp2857
g7
I243
sg8
(dp2858
g10
F0.06
sg17
S'Leptoscarus vaigiensis'
p2859
sg21
F0.0
sg24
S'Leptoscarus '
p2860
sg28
F0.38185344698242774
sg31
F0.019
sg34
S'7500'
p2861
sg38
F0.0
sg45
S'Scari'
p2862
sg49
I20
sg52
F3.7297730251244063
sg55
S'line'
p2863
sg59
S'500'
p2864
sg63
I10
sg66
S'35'
p2865
ssg15
S'McC99-47'
p2866
sbsI244
(idataset.study
Study
p2867
(dp2868
g7
I244
sg8
(dp2869
g10
F0.11
sg17
S'Naso annulatus'
p2870
sg21
F13.1
sg24
S'Naso '
p2871
sg28
F2.0967324044335194
sg31
F0.035
sg34
S'7500'
p2872
sg38
F2.062
sg45
S'Acant'
p2873
sg49
I20
sg52
F-10.807587347137712
sg55
S'line'
p2874
sg59
S'500'
p2875
sg63
I10
sg66
S'100'
p2876
ssg15
S'McC99-48'
p2877
sbsI245
(idataset.study
Study
p2878
(dp2879
g7
I245
sg8
(dp2880
g10
F0.0
sg17
S'Naso lituratus'
p2881
sg21
F0.25
sg24
S'Naso '
p2882
sg28
F0.7417583218621371
sg31
F0.0
sg34
S'7500'
p2883
sg38
F0.072
sg45
S'Acant'
p2884
sg49
I20
sg52
F-5.958649118024002
sg55
S'line'
p2885
sg59
S'500'
p2886
sg63
I10
sg66
S'30'
p2887
ssg15
S'McC99-49'
p2888
sbsI246
(idataset.study
Study
p2889
(dp2890
g7
I246
sg8
(dp2891
g10
F74.85
sg17
S'Neopomacentrus azysron'
p2892
sg21
F26.0
sg24
S'Neopomacentrus '
p2893
sg28
F0.3287606063209418
sg31
F16.915
sg34
S'7500'
p2894
sg38
F7.155
sg45
S'Pomac'
p2895
sg49
I20
sg52
F3.2750017372906086
sg55
S'line'
p2896
sg59
S'500'
p2897
sg63
I10
sg66
S'8'
p2898
ssg15
S'McC99-50'
p2899
sbsI247
(idataset.study
Study
p2900
(dp2901
g7
I247
sg8
(dp2902
g10
F0.0
sg17
S'Paracanthurus hepatus'
p2903
sg21
F0.63
sg24
S'Paracanthurus '
p2904
sg28
F0.37736886335717534
sg31
F0.054
sg34
S'7500'
p2905
sg38
F0.282
sg45
S'Acant'
p2906
sg49
I20
sg52
F-3.6935256600476625
sg55
S'line'
p2907
sg59
S'500'
p2908
sg63
I10
sg66
S'31'
p2909
ssg15
S'McC99-51'
p2910
sbsI248
(idataset.study
Study
p2911
(dp2912
g7
I248
sg8
(dp2913
g10
F0.0
sg17
S'Pomacanthus chrysurus'
p2914
sg21
F0.1
sg24
S'Pomacanthus '
p2915
sg28
F0.3923842086347314
sg31
F0.0
sg34
S'7500'
p2916
sg38
F0.045
sg45
S'Pomaa'
p2917
sg49
I20
sg52
F-3.813535435535362
sg55
S'line'
p2918
sg59
S'500'
p2919
sg63
I10
sg66
S'33'
p2920
ssg15
S'McC99-52'
p2921
sbsI249
(idataset.study
Study
p2922
(dp2923
g7
I249
sg8
(dp2924
g10
F0.65
sg17
S'Pomacentrus baenschi'
p2925
sg21
F1.27
sg24
S'Pomacentrus '
p2926
sg28
F0.23450545289908437
sg31
F0.149
sg34
S'7500'
p2927
sg38
F0.42
sg45
S'Pomac'
p2928
sg49
I20
sg52
F-2.2517387001926004
sg55
S'line'
p2929
sg59
S'500'
p2930
sg63
I10
sg66
S'10'
p2931
ssg15
S'McC99-53'
p2932
sbsI250
(idataset.study
Study
p2933
(dp2934
g7
I250
sg8
(dp2935
g10
F11.5
sg17
S'Pomacentrus caeruleus'
p2936
sg21
F3.17
sg24
S'Pomacentrus '
p2937
sg28
F0.3119100238863633
sg31
F3.115
sg34
S'7500'
p2938
sg38
F0.742
sg45
S'Pomac'
p2939
sg49
I20
sg52
F3.1168255378159677
sg55
S'line'
p2940
sg59
S'500'
p2941
sg63
I10
sg66
S'8'
p2942
ssg15
S'McC99-54'
p2943
sbsI251
(idataset.study
Study
p2944
(dp2945
g7
I251
sg8
(dp2946
g10
F4.6
sg17
S'Pomacentrus pavo'
p2947
sg21
F2.0
sg24
S'Pomacentrus '
p2948
sg28
F0.2689383613394486
sg31
F0.971
sg34
S'7500'
p2949
sg38
F0.894
sg45
S'Pomac'
p2950
sg49
I20
sg52
F2.671385722872478
sg55
S'line'
p2951
sg59
S'500'
p2952
sg63
I10
sg66
S'11'
p2953
ssg15
S'McC99-55'
p2954
sbsI252
(idataset.study
Study
p2955
(dp2956
g7
I252
sg8
(dp2957
g10
F0.0
sg17
S'Pseudobalistes fuscus'
p2958
sg21
F0.13
sg24
S'Pseudobalistes '
p2959
sg28
F0.3965812598098126
sg31
F0.0
sg34
S'7500'
p2960
sg38
F0.058
sg45
S'Balis'
p2961
sg49
I20
sg52
F-3.846410741014115
sg55
S'line'
p2962
sg59
S'500'
p2963
sg63
I10
sg66
S'55'
p2964
ssg15
S'McC99-56'
p2965
sbsI253
(idataset.study
Study
p2966
(dp2967
g7
I253
sg8
(dp2968
g10
F2.4
sg17
S'Pseudocheilinus hexataenia'
p2969
sg21
F4.02
sg24
S'Pseudocheilinus '
p2970
sg28
F0.34613576743617297
sg31
F0.256
sg34
S'7500'
p2971
sg38
F0.72
sg45
S'Labri'
p2972
sg49
I20
sg52
F-3.4304731519384286
sg55
S'line'
p2973
sg59
S'500'
p2974
sg63
I10
sg66
S'7'
p2975
ssg15
S'McC99-57'
p2976
sbsI254
(idataset.study
Study
p2977
(dp2978
g7
I254
sg8
(dp2979
g10
F0.0
sg17
S'Rhinecanthus aculeatus'
p2980
sg21
F0.33
sg24
S'Rhinecanthus '
p2981
sg28
F0.3940247062118908
sg31
F0.0
sg34
S'7500'
p2982
sg38
F0.148
sg45
S'Balis'
p2983
sg49
I20
sg52
F-3.8264190011959545
sg55
S'line'
p2984
sg59
S'500'
p2985
sg63
I10
sg66
S'25'
p2986
ssg15
S'McC99-58'
p2987
sbsI255
(idataset.study
Study
p2988
(dp2989
g7
I255
sg8
(dp2990
g10
F0.11
sg17
S'Scarus russelii'
p2991
sg21
F1.87
sg24
S'Scarus '
p2992
sg28
F0.9528338384214416
sg31
F0.022
sg34
S'7500'
p2993
sg38
F0.434
sg45
S'Scari'
p2994
sg49
I20
sg52
F-6.9404632630168495
sg55
S'line'
p2995
sg59
S'500'
p2996
sg63
I10
sg66
S'51'
p2997
ssg15
S'McC99-59'
p2998
sbsI256
(idataset.study
Study
p2999
(dp3000
g7
I256
sg8
(dp3001
g10
F0.0
sg17
S'Scarus viridifucatus'
p3002
sg21
F0.4
sg24
S'Scarus '
p3003
sg28
F0.614689252057118
sg31
F0.0
sg34
S'7500'
p3004
sg38
F0.13
sg45
S'Scari'
p3005
sg49
I20
sg52
F-5.280279833818192
sg55
S'line'
p3006
sg59
S'500'
p3007
sg63
I10
sg66
S'32'
p3008
ssg15
S'McC99-60'
p3009
sbsI257
(idataset.study
Study
p3010
(dp3011
g7
I257
sg8
(dp3012
g10
F34.5
sg17
S'Stegastes nigricans'
p3013
sg21
F13.7
sg24
S'Stegastes '
p3014
sg28
F0.2984285551061523
sg31
F7.137
sg34
S'7500'
p3015
sg38
F5.961
sg45
S'Pomac'
p3016
sg49
I20
sg52
F2.984244176733723
sg55
S'line'
p3017
sg59
S'500'
p3018
sg63
I10
sg66
S'13'
p3019
ssg15
S'McC99-61'
p3020
sbsI258
(idataset.study
Study
p3021
(dp3022
g7
I258
sg8
(dp3023
g10
F0.45
sg17
S'Stethojulis strigiventer'
p3024
sg21
F0.0
sg24
S'Stethojulis '
p3025
sg28
F0.5122710109100433
sg31
F0.114
sg34
S'7500'
p3026
sg38
F0.0
sg45
S'Labri'
p3027
sg49
I20
sg52
F4.662216281405508
sg55
S'line'
p3028
sg59
S'500'
p3029
sg63
I10
sg66
S'14'
p3030
ssg15
S'McC99-62'
p3031
sbsI259
(idataset.study
Study
p3032
(dp3033
g7
I259
sg8
(dp3034
g10
F0.0
sg17
S'Sufflamen chrysopterus'
p3035
sg21
F1.65
sg24
S'Sufflamen '
p3036
sg28
F1.338522210061471
sg31
F0.054
sg34
S'7500'
p3037
sg38
F0.326
sg45
S'Balis'
p3038
sg49
I20
sg52
F-8.44460375646414
sg55
S'line'
p3039
sg59
S'500'
p3040
sg63
I10
sg66
S'30'
p3041
ssg15
S'McC99-63'
p3042
sbsI260
(idataset.study
Study
p3043
(dp3044
g7
I260
sg8
(dp3045
g10
F1.95
sg17
S'Thalassoma lunare'
p3046
sg21
F0.2
sg24
S'Thalassoma '
p3047
sg28
F23.40154661972042
sg31
F0.041
sg34
S'7500'
p3048
sg38
F0.054
sg45
S'Labri'
p3049
sg49
I20
sg52
F37.35094104816136
sg55
S'line'
p3050
sg59
S'500'
p3051
sg63
I10
sg66
S'25'
p3052
ssg15
S'McC99-64'
p3053
sbsI261
(idataset.study
Study
p3054
(dp3055
g7
I261
sg8
(dp3056
g10
F0.56
sg17
S'Acanthurus leucosternon'
p3057
sg21
F2.27
sg24
S'Acanthurus '
p3058
sg28
F1.057809846975767
sg31
F0.089
sg34
S'7500'
p3059
sg38
F0.376
sg45
S'Acant'
p3060
sg49
I20
sg52
F-7.380283925334175
sg55
S'line'
p3061
sg59
S'500'
p3062
sg63
I10
sg66
S'23'
p3063
ssg15
S'McC99-65'
p3064
sbsI262
(idataset.study
Study
p3065
(dp3066
g7
I262
sg8
(dp3067
g10
F0.17
sg17
S'Acanthurus nigricauda'
p3068
sg21
F0.08
sg24
S'Acanthurus '
p3069
sg28
F0.20987510515257807
sg31
F0.054
sg34
S'7500'
p3070
sg38
F0.022
sg45
S'Acant'
p3071
sg49
I20
sg52
F1.8953908064445926
sg55
S'line'
p3072
sg59
S'500'
p3073
sg63
I10
sg66
S'50'
p3074
ssg15
S'McC99-66'
p3075
sbsI263
(idataset.study
Study
p3076
(dp3077
g7
I263
sg8
(dp3078
g10
F0.0
sg17
S'Acanthurus triostegus'
p3079
sg21
F1.68
sg24
S'Acanthurus '
p3080
sg28
F0.5360950807446461
sg31
F0.0
sg34
S'7500'
p3081
sg38
F0.599
sg45
S'Acant'
p3082
sg49
I20
sg52
F-4.813076442845965
sg55
S'line'
p3083
sg59
S'500'
p3084
sg63
I10
sg66
S'31'
p3085
ssg15
S'McC99-67'
p3086
sbsI264
(idataset.study
Study
p3087
(dp3088
g7
I264
sg8
(dp3089
g10
F1.1
sg17
S'Amblyglyphidodon leucogaster'
p3090
sg21
F0.65
sg24
S'Amblyglyphidodon '
p3091
sg28
F0.17681099406642448
sg31
F0.386
sg34
S'7500'
p3092
sg38
F0.237
sg45
S'Pomac'
p3093
sg49
I20
sg52
F1.2683294698087986
sg55
S'line'
p3094
sg59
S'500'
p3095
sg63
I10
sg66
S'13'
p3096
ssg15
S'McC99-68'
p3097
sbsI265
(idataset.study
Study
p3098
(dp3099
g7
I265
sg8
(dp3100
g10
F0.65
sg17
S'Anampses meleagrides'
p3101
sg21
F1.55
sg24
S'Anampses '
p3102
sg28
F0.5197823745074903
sg31
F0.104
sg34
S'7500'
p3103
sg38
F0.291
sg45
S'Labri'
p3104
sg49
I20
sg52
F-4.71030173879014
sg55
S'line'
p3105
sg59
S'500'
p3106
sg63
I10
sg66
S'22'
p3107
ssg15
S'McC99-69'
p3108
sbsI266
(idataset.study
Study
p3109
(dp3110
g7
I266
sg8
(dp3111
g10
F0.35
sg17
S'Bodianus axillaris'
p3112
sg21
F0.67
sg24
S'Bodianus '
p3113
sg28
F0.43549156207042267
sg31
F0.054
sg34
S'7500'
p3114
sg38
F0.107
sg45
S'Labri'
p3115
sg49
I20
sg52
F-4.138779255314948
sg55
S'line'
p3116
sg59
S'500'
p3117
sg63
I10
sg66
S'20'
p3118
ssg15
S'McC99-70'
p3119
sbsI267
(idataset.study
Study
p3120
(dp3121
g7
I267
sg8
(dp3122
g10
F1.17
sg17
S'Calotomus carolinus'
p3123
sg21
F0.35
sg24
S'Calotomus '
p3124
sg28
F0.5198021021688208
sg31
F0.193
sg34
S'7500'
p3125
sg38
F0.103
sg45
S'Scari'
p3126
sg49
I20
sg52
F4.7104273829589225
sg55
S'line'
p3127
sg59
S'500'
p3128
sg63
I10
sg66
S'54'
p3129
ssg15
S'McC99-71'
p3130
sbsI268
(idataset.study
Study
p3131
(dp3132
g7
I268
sg8
(dp3133
g10
F0.17
sg17
S'Cetoscarus bicolor'
p3134
sg21
F0.42
sg24
S'Cetoscarus '
p3135
sg28
F0.4296563815122803
sg31
F0.038
sg34
S'7500'
p3136
sg38
F0.089
sg45
S'Scari'
p3137
sg49
I20
sg52
F-4.096264504489037
sg55
S'line'
p3138
sg59
S'500'
p3139
sg63
I10
sg66
S'80'
p3140
ssg15
S'McC99-72'
p3141
sbsI269
(idataset.study
Study
p3142
(dp3143
g7
I269
sg8
(dp3144
g10
F1.25
sg17
S'Chaetodon auriga'
p3145
sg21
F1.37
sg24
S'Chaetodon '
p3146
sg28
F0.1564434266161514
sg31
F0.171
sg34
S'7500'
p3147
sg38
F0.219
sg45
S'Chaet'
p3148
sg49
I20
sg52
F-0.6217761630756548
sg55
S'line'
p3149
sg59
S'500'
p3150
sg63
I10
sg66
S'22'
p3151
ssg15
S'McC99-73'
p3152
sbsI270
(idataset.study
Study
p3153
(dp3154
g7
I270
sg8
(dp3155
g10
F0.4
sg17
S'Chaetodon lunula'
p3156
sg21
F0.05
sg24
S'Chaetodon '
p3157
sg28
F0.7711408342402173
sg31
F0.066
sg34
S'7500'
p3158
sg38
F0.022
sg45
S'Chaet'
p3159
sg49
I20
sg52
F6.1047891081030015
sg55
S'line'
p3160
sg59
S'500'
p3161
sg63
I10
sg66
S'20'
p3162
ssg15
S'McC99-74'
p3163
sbsI271
(idataset.study
Study
p3164
(dp3165
g7
I271
sg8
(dp3166
g10
F0.15
sg17
S'Chaetodon melannotus'
p3167
sg21
F0.03
sg24
S'Chaetodon '
p3168
sg28
F0.34011151139898055
sg31
F0.041
sg34
S'7500'
p3169
sg38
F0.013
sg45
S'Chaet'
p3170
sg49
I20
sg52
F3.377379262673772
sg55
S'line'
p3171
sg59
S'500'
p3172
sg63
I10
sg66
S'15'
p3173
ssg15
S'McC99-75'
p3174
sbsI272
(idataset.study
Study
p3175
(dp3176
g7
I272
sg8
(dp3177
g10
F1.05
sg17
S'Chaetodon trifascialis'
p3178
sg21
F4.22
sg24
S'Chaetodon '
p3179
sg28
F0.5500716987284253
sg31
F0.142
sg34
S'7500'
p3180
sg38
F1.091
sg45
S'Chaet'
p3181
sg49
I20
sg52
F-4.899418529142567
sg55
S'line'
p3182
sg59
S'500'
p3183
sg63
I10
sg66
S'18'
p3184
ssg15
S'McC99-76'
p3185
sbsI273
(idataset.study
Study
p3186
(dp3187
g7
I273
sg8
(dp3188
g10
F2.6
sg17
S'Chaetodon trifasciatus'
p3189
sg21
F7.37
sg24
S'Chaetodon '
p3190
sg28
F0.5338409704292623
sg31
F0.405
sg34
S'7500'
p3191
sg38
F1.601
sg45
S'Chaet'
p3192
sg49
I20
sg52
F-4.799005962254656
sg55
S'line'
p3193
sg59
S'500'
p3194
sg63
I10
sg66
S'15'
p3195
ssg15
S'McC99-77'
p3196
sbsI274
(idataset.study
Study
p3197
(dp3198
g7
I274
sg8
(dp3199
g10
F0.05
sg17
S'Chaetodon xantocephalus'
p3200
sg21
F0.38
sg24
S'Chaetodon '
p3201
sg28
F1.0113130144629965
sg31
F0.022
sg34
S'7500'
p3202
sg38
F0.072
sg45
S'Chaet'
p3203
sg49
I20
sg52
F-7.188795508830377
sg55
S'line'
p3204
sg59
S'500'
p3205
sg63
I10
sg66
S'20'
p3206
ssg15
S'McC99-78'
p3207
sbsI275
(idataset.study
Study
p3208
(dp3209
g7
I275
sg8
(dp3210
g10
F1.05
sg17
S'Cheilinus trilobatus'
p3211
sg21
F0.1
sg24
S'Cheilinus '
p3212
sg28
F1.396369799085595
sg31
F0.126
sg34
S'7500'
p3213
sg38
F0.045
sg45
S'Labri'
p3214
sg49
I20
sg52
F8.647669509476856
sg55
S'line'
p3215
sg59
S'500'
p3216
sg63
I10
sg66
S'45'
p3217
ssg15
S'McC99-79'
p3218
sbsI276
(idataset.study
Study
p3219
(dp3220
g7
I276
sg8
(dp3221
g10
F69.35
sg17
S'Chromis viridis'
p3222
sg21
F97.55
sg24
S'Chromis '
p3223
sg28
F0.18747826079006782
sg31
F8.462
sg34
S'7500'
p3224
sg38
F29.838
sg45
S'Pomac'
p3225
sg49
I20
sg52
F-1.499565152770652
sg55
S'line'
p3226
sg59
S'500'
p3227
sg63
I10
sg66
S'9'
p3228
ssg15
S'McC99-80'
p3229
sbsI277
(idataset.study
Study
p3230
(dp3231
g7
I277
sg8
(dp3232
g10
F0.4
sg17
S'Coris frerei'
p3233
sg21
F0.27
sg24
S'Coris '
p3234
sg28
F0.20540337683677595
sg31
F0.066
sg34
S'7500'
p3235
sg38
F0.076
sg45
S'Labri'
p3236
sg49
I20
sg52
F1.8232395921015307
sg55
S'line'
p3237
sg59
S'500'
p3238
sg63
I10
sg66
S'60'
p3239
ssg15
S'McC99-81'
p3240
sbsI278
(idataset.study
Study
p3241
(dp3242
g7
I278
sg8
(dp3243
g10
F1.33
sg17
S'Ctenochaetus strigosus'
p3244
sg21
F4.07
sg24
S'Ctenochaetus '
p3245
sg28
F0.6423258009088963
sg31
F0.225
sg34
S'7500'
p3246
sg38
F0.801
sg45
S'Acant'
p3247
sg49
I20
sg52
F-5.435029719747058
sg55
S'line'
p3248
sg59
S'500'
p3249
sg63
I10
sg66
S'19'
p3250
ssg15
S'McC99-82'
p3251
sbsI279
(idataset.study
Study
p3252
(dp3253
g7
I279
sg8
(dp3254
g10
F2.75
sg17
S'Dascyllus carneus'
p3255
sg21
F0.13
sg24
S'Dascyllus '
p3256
sg28
F42.121512862727535
sg31
F0.047
sg34
S'7500'
p3257
sg38
F0.058
sg45
S'Pomac'
p3258
sg49
I20
sg52
F50.18257438358112
sg55
S'line'
p3259
sg59
S'500'
p3260
sg63
I10
sg66
S'6'
p3261
ssg15
S'McC99-83'
p3262
sbsI280
(idataset.study
Study
p3263
(dp3264
g7
I280
sg8
(dp3265
g10
F0.3
sg17
S'Epibulus insidiator'
p3266
sg21
F0.05
sg24
S'Epibulus '
p3267
sg28
F0.3745827165965744
sg31
F0.079
sg34
S'7500'
p3268
sg38
F0.022
sg45
S'Labri'
p3269
sg49
I20
sg52
F3.670825928288409
sg55
S'line'
p3270
sg59
S'500'
p3271
sg63
I10
sg66
S'35'
p3272
ssg15
S'McC99-84'
p3273
sbsI281
(idataset.study
Study
p3274
(dp3275
g7
I281
sg8
(dp3276
g10
F10.8
sg17
S'Gomphosus caeruleus'
p3277
sg21
F8.43
sg24
S'Gomphosus '
p3278
sg28
F0.33565613458528337
sg31
F0.67
sg34
S'7500'
p3279
sg38
F0.733
sg45
S'Labri'
p3280
sg49
I20
sg52
F3.3375691865663253
sg55
S'line'
p3281
sg59
S'500'
p3282
sg63
I10
sg66
S'28'
p3283
ssg15
S'McC99-85'
p3284
sbsI282
(idataset.study
Study
p3285
(dp3286
g7
I282
sg8
(dp3287
g10
F3.75
sg17
S'Halichoeres hortulanus'
p3288
sg21
F2.68
sg24
S'Halichoeres '
p3289
sg28
F0.22405699489169897
sg31
F0.503
sg34
S'7500'
p3290
sg38
F0.474
sg45
S'Labri'
p3291
sg49
I20
sg52
F2.1079420517419205
sg55
S'line'
p3292
sg59
S'500'
p3293
sg63
I10
sg66
S'27'
p3294
ssg15
S'McC99-86'
p3295
sbsI283
(idataset.study
Study
p3296
(dp3297
g7
I283
sg8
(dp3298
g10
F0.2
sg17
S'Halichoeres scapularis'
p3299
sg21
F0.3
sg24
S'Halichoeres '
p3300
sg28
F0.17169938451365824
sg31
F0.047
sg34
S'7500'
p3301
sg38
F0.134
sg45
S'Labri'
p3302
sg49
I20
sg52
F-1.1410359638589371
sg55
S'line'
p3303
sg59
S'500'
p3304
sg63
I10
sg66
S'20'
p3305
ssg15
S'McC99-87'
p3306
sbsI284
(idataset.study
Study
p3307
(dp3308
g7
I284
sg8
(dp3309
g10
F0.2
sg17
S'Hemigymnus fasciatus'
p3310
sg21
F0.58
sg24
S'Hemigymnus '
p3311
sg28
F0.7131998040101852
sg31
F0.047
sg34
S'7500'
p3312
sg38
F0.089
sg45
S'Labri'
p3313
sg49
I20
sg52
F-5.8130876684092
sg55
S'line'
p3314
sg59
S'500'
p3315
sg63
I10
sg66
S'50'
p3316
ssg15
S'McC99-88'
p3317
sbsI285
(idataset.study
Study
p3318
(dp3319
g7
I285
sg8
(dp3320
g10
F1.65
sg17
S'Hemigymnus melapterus'
p3321
sg21
F0.6
sg24
S'Hemigymnus '
p3322
sg28
F0.5244898925882888
sg31
F0.237
sg34
S'7500'
p3323
sg38
F0.161
sg45
S'Labri'
p3324
sg49
I20
sg52
F4.7401891898211534
sg55
S'line'
p3325
sg59
S'500'
p3326
sg63
I10
sg66
S'50'
p3327
ssg15
S'McC99-89'
p3328
sbsI286
(idataset.study
Study
p3329
(dp3330
g7
I286
sg8
(dp3331
g10
F0.3
sg17
S'Labroides bicolor'
p3332
sg21
F0.37
sg24
S'Labroides '
p3333
sg28
F0.1505550130831147
sg31
F0.452
sg34
S'7500'
p3334
sg38
F0.045
sg45
S'Labri'
p3335
sg49
I20
sg52
F-0.18248502674707429
sg55
S'line'
p3336
sg59
S'500'
p3337
sg63
I10
sg66
S'14'
p3338
ssg15
S'McC99-90'
p3339
sbsI287
(idataset.study
Study
p3340
(dp3341
g7
I287
sg8
(dp3342
g10
F11.7
sg17
S'Labroides dimidiatus'
p3343
sg21
F6.58
sg24
S'Labroides '
p3344
sg28
F0.7687430686530154
sg31
F0.705
sg34
S'7500'
p3345
sg38
F1.015
sg45
S'Labri'
p3346
sg49
I20
sg52
F6.092994675788001
sg55
S'line'
p3347
sg59
S'500'
p3348
sg63
I10
sg66
S'12'
p3349
ssg15
S'McC99-91'
p3350
sbsI288
(idataset.study
Study
p3351
(dp3352
g7
I288
sg8
(dp3353
g10
F0.0
sg17
S'Naso unicornis'
p3354
sg21
F0.03
sg24
S'Naso '
p3355
sg28
F0.41138770428212884
sg31
F0.0
sg34
S'7500'
p3356
sg38
F0.013
sg45
S'Acant'
p3357
sg49
I20
sg52
F-3.960209875363644
sg55
S'line'
p3358
sg59
S'500'
p3359
sg63
I10
sg66
S'70'
p3360
ssg15
S'McC99-92'
p3361
sbsI289
(idataset.study
Study
p3362
(dp3363
g7
I289
sg8
(dp3364
g10
F7.6
sg17
S'Plectroglyphidodon dickii'
p3365
sg21
F16.33
sg24
S'Plectroglyphidodon '
p3366
sg28
F0.5849659845630786
sg31
F1.104
sg34
S'7500'
p3367
sg38
F2.455
sg45
S'Pomac'
p3368
sg49
I20
sg52
F-5.1086161603495635
sg55
S'line'
p3369
sg59
S'500'
p3370
sg63
I10
sg66
S'11'
p3371
ssg15
S'McC99-93'
p3372
sbsI290
(idataset.study
Study
p3373
(dp3374
g7
I290
sg8
(dp3375
g10
F0.75
sg17
S'Pomacanthus semicirculatus'
p3376
sg21
F0.2
sg24
S'Pomacanthus '
p3377
sg28
F0.34347999959694986
sg31
F0.187
sg34
S'7500'
p3378
sg38
F0.054
sg45
S'Pomaa'
p3379
sg49
I20
sg52
F3.4071689091996875
sg55
S'line'
p3380
sg59
S'500'
p3381
sg63
I10
sg66
S'38'
p3382
ssg15
S'McC99-94'
p3383
sbsI291
(idataset.study
Study
p3384
(dp3385
g7
I291
sg8
(dp3386
g10
F14.35
sg17
S'Pomacentrus sulfureus'
p3387
sg21
F87.53
sg24
S'Pomacentrus '
p3388
sg28
F0.5091139903758618
sg31
F1.572
sg34
S'7500'
p3389
sg38
F26.958
sg45
S'Pomac'
p3390
sg49
I20
sg52
F-4.641857324665603
sg55
S'line'
p3391
sg59
S'500'
p3392
sg63
I10
sg66
S'10'
p3393
ssg15
S'McC99-95'
p3394
sbsI292
(idataset.study
Study
p3395
(dp3396
g7
I292
sg8
(dp3397
g10
F0.0
sg17
S'Scarus atrilunula'
p3398
sg21
F0.37
sg24
S'Scarus '
p3399
sg28
F0.6493635276325938
sg31
F0.0
sg34
S'7500'
p3400
sg38
F0.116
sg45
S'Scari'
p3401
sg49
I20
sg52
F-5.473738362212394
sg55
S'line'
p3402
sg59
S'500'
p3403
sg63
I10
sg66
S'30'
p3404
ssg15
S'McC99-96'
p3405
sbsI293
(idataset.study
Study
p3406
(dp3407
g7
I293
sg8
(dp3408
g10
F0.17
sg17
S'Scarus falcipinnis'
p3409
sg21
F0.67
sg24
S'Scarus '
p3410
sg28
F0.8934785583627269
sg31
F0.038
sg34
S'7500'
p3411
sg38
F0.116
sg45
S'Scari'
p3412
sg49
I20
sg52
F-6.678975482943744
sg55
S'line'
p3413
sg59
S'500'
p3414
sg63
I10
sg66
S'47'
p3415
ssg15
S'McC99-97'
p3416
sbsI294
(idataset.study
Study
p3417
(dp3418
g7
I294
sg8
(dp3419
g10
F2.83
sg17
S'Scarus frenatus'
p3420
sg21
F4.8
sg24
S'Scarus '
p3421
sg28
F0.5789097567516823
sg31
F0.259
sg34
S'7500'
p3422
sg38
F0.55
sg45
S'Scari'
p3423
sg49
I20
sg52
F-5.072926710006851
sg55
S'line'
p3424
sg59
S'500'
p3425
sg63
I10
sg66
S'47'
p3426
ssg15
S'McC99-98'
p3427
sbsI295
(idataset.study
Study
p3428
(dp3429
g7
I295
sg8
(dp3430
g10
F1.17
sg17
S'Scarus ghobban'
p3431
sg21
F1.23
sg24
S'Scarus '
p3432
sg28
F0.1505139857786526
sg31
F0.278
sg34
S'7500'
p3433
sg38
F0.425
sg45
S'Scari'
p3434
sg49
I20
sg52
F-0.17561078189893575
sg55
S'line'
p3435
sg59
S'500'
p3436
sg63
I10
sg66
S'75'
p3437
ssg15
S'McC99-99'
p3438
sbsI296
(idataset.study
Study
p3439
(dp3440
g7
I296
sg8
(dp3441
g10
F0.89
sg17
S'Scarus scaber'
p3442
sg21
F0.9
sg24
S'Scarus '
p3443
sg28
F0.15001894273807698
sg31
F0.281
sg34
S'7500'
p3444
sg38
F0.304
sg45
S'Scari'
p3445
sg49
I20
sg52
F-0.03371296908635413
sg55
S'line'
p3446
sg59
S'500'
p3447
sg63
I10
sg66
S'37'
p3448
ssg15
S'McC99-100'
p3449
sbsI297
(idataset.study
Study
p3450
(dp3451
g7
I297
sg8
(dp3452
g10
F4.3
sg17
S'Stethojulis albovittata'
p3453
sg21
F5.88
sg24
S'Stethojulis '
p3454
sg28
F0.3360765426231167
sg31
F0.323
sg34
S'7500'
p3455
sg38
F0.662
sg45
S'Labri'
p3456
sg49
I20
sg52
F-3.3413459200428504
sg55
S'line'
p3457
sg59
S'500'
p3458
sg63
I10
sg66
S'12'
p3459
ssg15
S'McC99-101'
p3460
sbsI298
(idataset.study
Study
p3461
(dp3462
g7
I298
sg8
(dp3463
g10
F6.0
sg17
S'Thalassoma hardwicke'
p3464
sg21
F6.4
sg24
S'Thalassoma '
p3465
sg28
F0.15265295594731326
sg31
F1.053
sg34
S'7500'
p3466
sg38
F0.787
sg45
S'Labri'
p3467
sg49
I20
sg52
F-0.39897037087833337
sg55
S'line'
p3468
sg59
S'500'
p3469
sg63
I10
sg66
S'18'
p3470
ssg15
S'McC99-102'
p3471
sbsI299
(idataset.study
Study
p3472
(dp3473
g7
I299
sg8
(dp3474
g10
F21.35
sg17
S'Thalassoma hebraicum'
p3475
sg21
F13.52
sg24
S'Thalassoma '
p3476
sg28
F0.6388621375304979
sg31
F1.325
sg34
S'7500'
p3477
sg38
F1.565
sg45
S'Labri'
p3478
sg49
I20
sg52
F5.415877422156993
sg55
S'line'
p3479
sg59
S'500'
p3480
sg63
I10
sg66
S'23'
p3481
ssg15
S'McC99-103'
p3482
sbsI300
(idataset.study
Study
p3483
(dp3484
g7
I300
sg8
(dp3485
g10
F3.17
sg17
S'Zebrasoma scopas'
p3486
sg21
F4.17
sg24
S'Zebrasoma '
p3487
sg28
F0.20004445652511982
sg31
F0.468
sg34
S'7500'
p3488
sg38
F0.72
sg45
S'Acant'
p3489
sg49
I20
sg52
F-1.732820646087525
sg55
S'line'
p3490
sg59
S'500'
p3491
sg63
I10
sg66
S'20'
p3492
ssg15
S'McC99-104'
p3493
sbsI301
(idataset.study
Study
p3494
(dp3495
g7
I301
sg8
(dp3496
g10
F0.39
sg17
S'Zebrasoma veliferum'
p3497
sg21
F0.58
sg24
S'Zebrasoma '
p3498
sg28
F0.21116407114986438
sg31
F0.038
sg34
S'7500'
p3499
sg38
F0.161
sg45
S'Acant'
p3500
sg49
I20
sg52
F-1.9156837601733387
sg55
S'line'
p3501
sg59
S'500'
p3502
sg63
I10
sg66
S'40'
p3503
ssg15
S'McC99-105'
p3504
sbsI302
(idataset.study
Study
p3505
(dp3506
g7
I302
sg8
(dp3507
g10
F3.17
sg17
S'Acanthurus nigrofuscus'
p3508
sg21
F13.75
sg24
S'Acanthurus '
p3509
sg28
F0.8190923468341696
sg31
F0.838
sg34
S'7500'
p3510
sg38
F2.594
sg45
S'Acant'
p3511
sg49
I20
sg52
F-6.336050884427158
sg55
S'line'
p3512
sg59
S'500'
p3513
sg63
I10
sg66
S'21'
p3514
ssg15
S'McC99-106'
p3515
sbsI303
(idataset.study
Study
p3516
(dp3517
g7
I303
sg8
(dp3518
g10
F0.5
sg17
S'Cheilinus fasciatus'
p3519
sg21
F0.0
sg24
S'Cheilinus '
p3520
sg28
F1.1563083636390097
sg31
F0.076
sg34
S'7500'
p3521
sg38
F0.0
sg45
S'Labri'
p3522
sg49
I20
sg52
F7.770360469009181
sg55
S'line'
p3523
sg59
S'500'
p3524
sg63
I10
sg66
S'36'
p3525
ssg15
S'McC99-107'
p3526
sbsI304
(idataset.study
Study
p3527
(dp3528
g7
I304
sg8
(dp3529
g10
F0.33
sg17
S'Chlorurus gibbus'
p3530
sg21
F1.18
sg24
S'Chlorurus'
p3531
sg28
F0.6504530369883313
sg31
F0.07
sg34
S'7500'
p3532
sg38
F0.246
sg45
S'Scari'
p3533
sg49
I20
sg52
F-5.479706399005322
sg55
S'line'
p3534
sg59
S'500'
p3535
sg63
I10
sg66
S'70'
p3536
ssg15
S'McC99-108'
p3537
sbsI305
(idataset.study
Study
p3538
(dp3539
g7
I305
sg8
(dp3540
g10
F2.83
sg17
S'Chlorurus sordidus'
p3541
sg21
F17.38
sg24
S'Chlorurus'
p3542
sg28
F8.308010975203494
sg31
F0.259
sg34
S'7500'
p3543
sg38
F1.064
sg45
S'Scari'
p3544
sg49
I20
sg52
F-22.124209782774383
sg55
S'line'
p3545
sg59
S'500'
p3546
sg63
I10
sg66
S'35'
p3547
ssg15
S'McC99-109'
p3548
sbsI306
(idataset.study
Study
p3549
(dp3550
g7
I306
sg8
(dp3551
g10
F7.5
sg17
S'Chromis ternatensis'
p3552
sg21
F33.55
sg24
S'Chromis '
p3553
sg28
F0.42149033589704193
sg31
F2.109
sg34
S'7500'
p3554
sg38
F10.644
sg45
S'Pomac'
p3555
sg49
I20
sg52
F-4.0360153807713015
sg55
S'line'
p3556
sg59
S'500'
p3557
sg63
I10
sg66
S'11'
p3558
ssg15
S'McC99-110'
p3559
sbsI307
(idataset.study
Study
p3560
(dp3561
g7
I307
sg8
(dp3562
g10
F9.75
sg17
S'Chromis weberi'
p3563
sg21
F1.15
sg24
S'Chromis '
p3564
sg28
F0.6436687015421707
sg31
F1.85
sg34
S'7500'
p3565
sg38
F0.358
sg45
S'Pomac'
p3566
sg49
I20
sg52
F5.442437146401439
sg55
S'line'
p3567
sg59
S'500'
p3568
sg63
I10
sg66
S'12'
p3569
ssg15
S'McC99-111'
p3570
sbsI308
(idataset.study
Study
p3571
(dp3572
g7
I308
sg8
(dp3573
g10
F8.72
sg17
S'Ctenochaetus striatus'
p3574
sg21
F10.83
sg24
S'Ctenochaetus '
p3575
sg28
F0.18558630156404057
sg31
F1.123
sg34
S'7500'
p3576
sg38
F1.865
sg45
S'Acant'
p3577
sg49
I20
sg52
F-1.4612248608076834
sg55
S'line'
p3578
sg59
S'500'
p3579
sg63
I10
sg66
S'26'
p3580
ssg15
S'McC99-112'
p3581
sbsI309
(idataset.study
Study
p3582
(dp3583
g7
I309
sg8
(dp3584
g10
F0.06
sg17
S'Hipposcarus harid'
p3585
sg21
F0.92
sg24
S'Hipposcarus '
p3586
sg28
F1.3738387351133903
sg31
F0.019
sg34
S'7500'
p3587
sg38
F0.17
sg45
S'Scari'
p3588
sg49
I20
sg52
F-8.569149555632894
sg55
S'line'
p3589
sg59
S'500'
p3590
sg63
I10
sg66
S'75'
p3591
ssg15
S'McC99-113'
p3592
sbsI310
(idataset.study
Study
p3593
(dp3594
g7
I310
sg8
(dp3595
g10
F2.5
sg17
S'Neoglyphidodon melas'
p3596
sg21
F1.6
sg24
S'Neoglyphidodon '
p3597
sg28
F0.2336354531608594
sg31
F0.326
sg34
S'7500'
p3598
sg38
F0.501
sg45
S'Pomac'
p3599
sg49
I20
sg52
F2.240117673170667
sg55
S'line'
p3600
sg59
S'500'
p3601
sg63
I10
sg66
S'18'
p3602
ssg15
S'McC99-114'
p3603
sbsI311
(idataset.study
Study
p3604
(dp3605
g7
I311
sg8
(dp3606
g10
F1.28
sg17
S'Scarus niger'
p3607
sg21
F3.48
sg24
S'Scarus '
p3608
sg28
F0.49926343719082394
sg31
F0.196
sg34
S'7500'
p3609
sg38
F0.774
sg45
S'Scari'
p3610
sg49
I20
sg52
F-4.577751219916766
sg55
S'line'
p3611
sg59
S'500'
p3612
sg63
I10
sg66
S'35'
p3613
ssg15
S'McC99-115'
p3614
sbsI312
(idataset.study
Study
p3615
(dp3616
g7
I312
sg8
(dp3617
g10
F0.22
sg17
S'Scarus rubroviolaceus'
p3618
sg21
F1.45
sg24
S'Scarus '
p3619
sg28
F0.8012179648121438
sg31
F0.07
sg34
S'7500'
p3620
sg38
F0.322
sg45
S'Scari'
p3621
sg49
I20
sg52
F-6.25084617381748
sg55
S'line'
p3622
sg59
S'500'
p3623
sg63
I10
sg66
S'75'
p3624
ssg15
S'McC99-116'
p3625
sbsI313
(idataset.study
Study
p3626
(dp3627
g7
I313
sg8
(dp3628
g10
F0.0
sg17
S'Acanthurus mata'
p3629
sg21
F0.08
sg24
S'Acanthurus '
p3630
sg28
F0.12389883611382756
sg31
F0.0
sg34
S'8500'
p3631
sg38
F0.299
sg45
S'Acant'
p3632
sg49
I20
sg52
F-0.4098511907966315
sg55
S'line'
p3633
sg59
S'500'
p3634
sg63
I14
sg66
S'38'
p3635
ssg15
S'McC94'
p3636
sbsI314
(idataset.study
Study
p3637
(dp3638
g7
I314
sg8
(dp3639
g10
F0.25
sg17
S'Chrysiptera annulata'
p3640
sg21
F0.0
sg24
S'Chrysiptera '
p3641
sg28
F0.12260914227415613
sg31
F1.118
sg34
S'8500'
p3642
sg38
F0.0
sg45
S'Pomac'
p3643
sg49
I20
sg52
F0.28333516813089066
sg55
S'line'
p3644
sg59
S'500'
p3645
sg63
I14
sg66
S'8'
p3646
ssg15
S'McC94-2'
p3647
sbsI315
(idataset.study
Study
p3648
(dp3649
g7
I315
sg8
(dp3650
g10
F0.0
sg17
S'Coris aygula'
p3651
sg21
F0.15
sg24
S'Coris '
p3652
sg28
F0.13011309571267501
sg31
F0.0
sg34
S'8500'
p3653
sg38
F0.299
sg45
S'Labri'
p3654
sg49
I20
sg52
F-0.768470982743684
sg55
S'line'
p3655
sg59
S'500'
p3656
sg63
I14
sg66
S'120'
p3657
ssg15
S'McC94-3'
p3658
sbsI316
(idataset.study
Study
p3659
(dp3660
g7
I316
sg8
(dp3661
g10
F1.0
sg17
S'Diodon holocanthus'
p3662
sg21
F0.0
sg24
S'Diodon '
p3663
sg28
F0.1272608692266601
sg31
F2.012
sg34
S'8500'
p3664
sg38
F0.0
sg45
S'Diodo'
p3665
sg49
I20
sg52
F0.6297588826448027
sg55
S'line'
p3666
sg59
S'500'
p3667
sg63
I14
sg66
S'50'
p3668
ssg15
S'McC94-4'
p3669
sbsI317
(idataset.study
Study
p3670
(dp3671
g7
I317
sg8
(dp3672
g10
F0.25
sg17
S'Diprotacanthus xanthurus'
p3673
sg21
F8.47
sg24
S'Diprotacanthus '
p3674
sg28
F0.12385892158421763
sg31
F1.118
sg34
S'8500'
p3675
sg38
F30.944
sg45
S'Labri'
p3676
sg49
I20
sg52
F-0.40652651891843655
sg55
S'line'
p3677
sg59
S'500'
p3678
sg63
I14
sg66
S'8'
p3679
ssg15
S'McC94-5'
p3680
sbsI318
(idataset.study
Study
p3681
(dp3682
g7
I318
sg8
(dp3683
g10
F0.0
sg17
S'Hologymnosus doliatus'
p3684
sg21
F0.2
sg24
S'Hologymnosus '
p3685
sg28
F0.12827514377712695
sg31
F0.0
sg34
S'8500'
p3686
sg38
F0.449
sg45
S'Labri'
p3687
sg49
I20
sg52
F-0.6823246439208954
sg55
S'line'
p3688
sg59
S'500'
p3689
sg63
I14
sg66
S'38'
p3690
ssg15
S'McC94-6'
p3691
sbsI319
(idataset.study
Study
p3692
(dp3693
g7
I319
sg8
(dp3694
g10
F0.0
sg17
S'Naso francolina'
p3695
sg21
F0.07
sg24
S'Naso '
p3696
sg28
F0.12389176980607042
sg31
F0.0
sg34
S'8500'
p3697
sg38
F0.262
sg45
S'Acant'
p3698
sg52
F-0.4092645717258348
sg55
S'line'
p3699
sg59
S'500'
p3700
sg63
I14
sg49
I20
ssg15
S'McC94-7'
p3701
sbsI320
(idataset.study
Study
p3702
(dp3703
g7
I320
sg8
(dp3704
g10
F0.15
sg17
S'Neopomacentrus cyanomos'
p3705
sg21
F0.0
sg24
S'Neopomacentrus '
p3706
sg28
F0.12260843861102434
sg31
F0.671
sg34
S'8500'
p3707
sg38
F0.0
sg45
S'Pomac'
p3708
sg49
I20
sg52
F0.2832507165159485
sg55
S'line'
p3709
sg59
S'500'
p3710
sg63
I14
sg66
S'10'
p3711
ssg15
S'McC94-8'
p3712
sbsI321
(idataset.study
Study
p3713
(dp3714
g7
I321
sg8
(dp3715
g10
F0.0
sg17
S'Thelassoma amblycephalum'
p3716
sg21
F0.67
sg24
S'Thelassoma '
p3717
sg28
F0.12389317361784342
sg31
F0.0
sg34
S'8500'
p3718
sg38
F2.507
sg45
S'Labri'
p3719
sg49
I20
sg52
F-0.40938117796314916
sg55
S'line'
p3720
sg59
S'500'
p3721
sg63
I14
sg66
S'14'
p3722
ssg15
S'McC94-9'
p3723
sbsI322
(idataset.study
Study
p3724
(dp3725
g7
I322
sg8
(dp3726
g10
F4.8
sg17
S'Abudefduf sexfasciatus'
p3727
sg21
F12.28
sg24
S'Abudefduf '
p3728
sg28
F0.12367746088246385
sg31
F2.147
sg34
S'8500'
p3729
sg38
F29.185
sg45
S'Pomac'
p3730
sg49
I20
sg52
F-0.39105560073304824
sg55
S'line'
p3731
sg59
S'500'
p3732
sg63
I14
sg66
S'17'
p3733
ssg15
S'McC94-10'
p3734
sbsI323
(idataset.study
Study
p3735
(dp3736
g7
I323
sg8
(dp3737
g10
F5.75
sg17
S'Abudefduf sparoides'
p3738
sg21
F0.32
sg24
S'Abudefduf '
p3739
sg28
F0.12315309448501986
sg31
F20.08
sg34
S'8500'
p3740
sg38
F0.823
sg45
S'Pomac'
p3741
sg49
I20
sg52
F0.3424435250351414
sg55
S'line'
p3742
sg59
S'500'
p3743
sg63
I14
sg66
S'15'
p3744
ssg15
S'McC94-11'
p3745
sbsI324
(idataset.study
Study
p3746
(dp3747
g7
I324
sg8
(dp3748
g10
F9.08
sg17
S'Abudefduf vaigiensis'
p3749
sg21
F1.68
sg24
S'Abudefduf '
p3750
sg28
F0.12236906679302272
sg31
F36.761
sg34
S'8500'
p3751
sg38
F5.837
sg45
S'Pomac'
p3752
sg49
I20
sg52
F0.2528906577607949
sg55
S'line'
p3753
sg59
S'500'
p3754
sg63
I14
sg66
S'20'
p3755
ssg15
S'McC94-12'
p3756
sbsI325
(idataset.study
Study
p3757
(dp3758
g7
I325
sg8
(dp3759
g10
F0.0
sg17
S'Acanthurus dussumieri'
p3760
sg21
F0.83
sg24
S'Acanthurus '
p3761
sg28
F0.12389267622680883
sg31
F0.0
sg34
S'8500'
p3762
sg38
F3.106
sg45
S'Acant'
p3763
sg49
I20
sg52
F-0.40933986646812637
sg55
S'line'
p3764
sg59
S'500'
p3765
sg63
I14
sg66
S'55'
p3766
ssg15
S'McC94-13'
p3767
sbsI326
(idataset.study
Study
p3768
(dp3769
g7
I326
sg8
(dp3770
g10
F0.0
sg17
S'Acanthurus tennenti'
p3771
sg21
F1.53
sg24
S'Acanthurus '
p3772
sg28
F0.1238931222153414
sg31
F0.0
sg34
S'8500'
p3773
sg38
F5.725
sg45
S'Acant'
p3774
sg49
I20
sg52
F-0.40937690885094985
sg55
S'line'
p3775
sg59
S'500'
p3776
sg63
I14
sg66
S'21'
p3777
ssg15
S'McC94-14'
p3778
sbsI327
(idataset.study
Study
p3779
(dp3780
g7
I327
sg8
(dp3781
g10
F0.3
sg17
S'Acanthurus xanthopterus'
p3782
sg21
F0.0
sg24
S'Acanthurus '
p3783
sg28
F0.1243696071661204
sg31
F0.85
sg34
S'8500'
p3784
sg38
F0.0
sg45
S'Acant'
p3785
sg49
I20
sg52
F0.447202895958121
sg55
S'line'
p3786
sg59
S'500'
p3787
sg63
I14
sg66
S'27'
p3788
ssg15
S'McC94-15'
p3789
sbsI328
(idataset.study
Study
p3790
(dp3791
g7
I328
sg8
(dp3792
g10
F0.0
sg17
S'Amphiprion akallopisos'
p3793
sg21
F0.73
sg24
S'Amphiprion '
p3794
sg28
F0.1273717657962587
sg31
F0.0
sg34
S'8500'
p3795
sg38
F1.759
sg45
S'Pomac'
p3796
sg49
I20
sg52
F-0.6357178753210685
sg55
S'line'
p3797
sg59
S'500'
p3798
sg63
I14
sg66
S'11'
p3799
ssg15
S'McC94-16'
p3800
sbsI329
(idataset.study
Study
p3801
(dp3802
g7
I329
sg8
(dp3803
g10
F0.8
sg17
S'Amphiprion allardi'
p3804
sg21
F0.38
sg24
S'Amphiprion '
p3805
sg28
F0.12221976950396607
sg31
F2.191
sg34
S'8500'
p3806
sg38
F0.823
sg45
S'Pomac'
p3807
sg49
I20
sg52
F0.2319514370010143
sg55
S'line'
p3808
sg59
S'500'
p3809
sg63
I14
sg66
S'15'
p3810
ssg15
S'McC94-17'
p3811
sbsI330
(idataset.study
Study
p3812
(dp3813
g7
I330
sg8
(dp3814
g10
F0.05
sg17
S'Anampses caeruleopunctatus'
p3815
sg21
F0.38
sg24
S'Anampses '
p3816
sg28
F0.1264345463901481
sg31
F0.224
sg34
S'8500'
p3817
sg38
F0.823
sg45
S'Labri'
p3818
sg49
I20
sg52
F-0.5834434825989688
sg55
S'line'
p3819
sg59
S'500'
p3820
sg63
I14
sg66
S'15'
p3821
ssg15
S'McC94-18'
p3822
sbsI331
(idataset.study
Study
p3823
(dp3824
g7
I331
sg8
(dp3825
g10
F0.05
sg17
S'Anampses twistii'
p3826
sg21
F0.38
sg24
S'Anampses '
p3827
sg28
F0.1264345463901481
sg31
F0.224
sg34
S'8500'
p3828
sg38
F0.823
sg45
S'Labri'
p3829
sg49
I20
sg52
F-0.5834434825989688
sg55
S'line'
p3830
sg59
S'500'
p3831
sg63
I14
sg66
S'18'
p3832
ssg15
S'McC94-19'
p3833
sbsI332
(idataset.study
Study
p3834
(dp3835
g7
I332
sg8
(dp3836
g10
F0.0
sg17
S'Balistapus undulatus'
p3837
sg21
F1.43
sg24
S'Balistapus '
p3838
sg28
F0.1452526562540308
sg31
F0.0
sg34
S'8500'
p3839
sg38
F1.721
sg45
S'Balis'
p3840
sg49
I20
sg52
F-1.272807042772485
sg55
S'line'
p3841
sg59
S'500'
p3842
sg63
I14
sg66
S'30'
p3843
ssg15
S'McC94-20'
p3844
sbsI333
(idataset.study
Study
p3845
(dp3846
g7
I333
sg8
(dp3847
g10
F0.0
sg17
S'Centropyge multispinis'
p3848
sg21
F1.45
sg24
S'Centropyge '
p3849
sg28
F0.14302176942459532
sg31
F0.0
sg34
S'8500'
p3850
sg38
F1.833
sg45
S'Pomaa'
p3851
sg49
I20
sg52
F-1.2117497529315302
sg55
S'line'
p3852
sg59
S'500'
p3853
sg63
I14
sg66
S'9'
p3854
ssg15
S'McC94-21'
p3855
sbsI334
(idataset.study
Study
p3856
(dp3857
g7
I334
sg8
(dp3858
g10
F0.0
sg17
S'Chaetodon falcula'
p3859
sg21
F0.27
sg24
S'Chaetodon '
p3860
sg28
F0.12389455780627458
sg31
F0.0
sg34
S'8500'
p3861
sg38
F1.01
sg45
S'Chaet'
p3862
sg49
I20
sg52
F-0.4094961216956939
sg55
S'line'
p3863
sg59
S'500'
p3864
sg63
I14
sg66
S'20'
p3865
ssg15
S'McC94-22'
p3866
sbsI335
(idataset.study
Study
p3867
(dp3868
g7
I335
sg8
(dp3869
g10
F0.0
sg17
S'Chaetodon guttatissimus'
p3870
sg21
F0.13
sg24
S'Chaetodon '
p3871
sg28
F0.12389756556495556
sg31
F0.0
sg34
S'8500'
p3872
sg38
F0.486
sg45
S'Chaet'
p3873
sg49
I20
sg52
F-0.4097457763957065
sg55
S'line'
p3874
sg59
S'500'
p3875
sg63
I14
sg66
S'11'
p3876
ssg15
S'McC94-23'
p3877
sbsI336
(idataset.study
Study
p3878
(dp3879
g7
I336
sg8
(dp3880
g10
F0.0
sg17
S'Chaetodon kleinii'
p3881
sg21
F0.13
sg24
S'Chaetodon '
p3882
sg28
F0.12389756556495556
sg31
F0.0
sg34
S'8500'
p3883
sg38
F0.486
sg45
S'Chaet'
p3884
sg49
I20
sg52
F-0.4097457763957065
sg55
S'line'
p3885
sg59
S'500'
p3886
sg63
I14
sg66
S'14'
p3887
ssg15
S'McC94-24'
p3888
sbsI337
(idataset.study
Study
p3889
(dp3890
g7
I337
sg8
(dp3891
g10
F0.1
sg17
S'Chaetodon lineolatus'
p3892
sg21
F0.07
sg24
S'Chaetodon '
p3893
sg28
F0.12151467780737531
sg31
F0.447
sg34
S'8500'
p3894
sg38
F0.262
sg45
S'Chaet'
p3895
sg49
I20
sg52
F0.07651949920552119
sg55
S'line'
p3896
sg59
S'500'
p3897
sg63
I14
sg66
S'30'
p3898
ssg15
S'McC94-25'
p3899
sbsI338
(idataset.study
Study
p3900
(dp3901
g7
I338
sg8
(dp3902
g10
F0.0
sg17
S'Cheilinus digrammus'
p3903
sg21
F0.42
sg24
S'Cheilinus '
p3904
sg28
F0.12389490663908918
sg31
F0.0
sg34
S'8500'
p3905
sg38
F1.571
sg45
S'Labri'
p3906
sg49
I20
sg52
F-0.4095250838656984
sg55
S'line'
p3907
sg59
S'500'
p3908
sg63
I14
sg66
S'30'
p3909
ssg15
S'McC94-26'
p3910
sbsI339
(idataset.study
Study
p3911
(dp3912
g7
I339
sg8
(dp3913
g10
F1.3
sg17
S'Cheilio inermis'
p3914
sg21
F0.83
sg24
S'Cheilio '
p3915
sg28
F0.12202263190291056
sg31
F1.476
sg34
S'8500'
p3916
sg38
F3.106
sg45
S'Labri'
p3917
sg49
I20
sg52
F0.2009878410627401
sg55
S'line'
p3918
sg59
S'500'
p3919
sg63
I14
sg66
S'50'
p3920
ssg15
S'McC94-27'
p3921
sbsI340
(idataset.study
Study
p3922
(dp3923
g7
I340
sg8
(dp3924
g10
F1.25
sg17
S'Chromis dimidiata'
p3925
sg21
F28.4
sg24
S'Chromis '
p3926
sg28
F0.12502747235910008
sg31
F5.009
sg34
S'8500'
p3927
sg38
F83.851
sg45
S'Pomac'
p3928
sg49
I20
sg52
F-0.49469714298341005
sg55
S'line'
p3929
sg59
S'500'
p3930
sg63
I14
sg66
S'9'
p3931
ssg15
S'McC94-28'
p3932
sbsI341
(idataset.study
Study
p3933
(dp3934
g7
I341
sg8
(dp3935
g10
F0.5
sg17
S'Chromis nigrura'
p3936
sg21
F33.78
sg24
S'Chromis '
p3937
sg28
F0.12394786683264387
sg31
F2.236
sg34
S'8500'
p3938
sg38
F123.138
sg45
S'Pomac'
p3939
sg49
I20
sg52
F-0.4138986439660396
sg55
S'line'
p3940
sg59
S'500'
p3941
sg63
I14
sg66
S'6'
p3942
ssg15
S'McC94-29'
p3943
sbsI342
(idataset.study
Study
p3944
(dp3945
g7
I342
sg8
(dp3946
g10
F3.15
sg17
S'Chrysiptera biocellata'
p3947
sg21
F0.0
sg24
S'Chrysiptera '
p3948
sg28
F0.12405969282880666
sg31
F9.436
sg34
S'8500'
p3949
sg38
F0.0
sg45
S'Pomac'
p3950
sg49
I20
sg52
F0.42298493497522577
sg55
S'line'
p3951
sg59
S'500'
p3952
sg63
I14
sg66
S'11'
p3953
ssg15
S'McC94-30'
p3954
sbsI343
(idataset.study
Study
p3955
(dp3956
g7
I343
sg8
(dp3957
g10
F0.1
sg17
S'Chrysiptera glauca'
p3958
sg21
F0.0
sg24
S'Chrysiptera '
p3959
sg28
F0.1247157708796666
sg31
F0.268
sg34
S'8500'
p3960
sg38
F0.0
sg45
S'Pomac'
p3961
sg49
I20
sg52
F0.47278913129900857
sg55
S'line'
p3962
sg59
S'500'
p3963
sg63
I14
sg66
S'11'
p3964
ssg15
S'McC94-31'
p3965
sbsI344
(idataset.study
Study
p3966
(dp3967
g7
I344
sg8
(dp3968
g10
F0.45
sg17
S'Chrysiptera leucopoma'
p3969
sg21
F0.0
sg24
S'Chrysiptera '
p3970
sg28
F0.12260961173268439
sg31
F2.012
sg34
S'8500'
p3971
sg38
F0.0
sg45
S'Pomac'
p3972
sg49
I20
sg52
F0.28339149719016127
sg55
S'line'
p3973
sg59
S'500'
p3974
sg63
I14
sg66
S'8'
p3975
ssg15
S'McC94-32'
p3976
sbsI345
(idataset.study
Study
p3977
(dp3978
g7
I345
sg8
(dp3979
g10
F20.8
sg17
S'Chrysiptera unimaculata'
p3980
sg21
F7.7
sg24
S'Chrysiptera '
p3981
sg28
F0.12703513954617143
sg31
F25.581
sg34
S'8500'
p3982
sg38
F9.99
sg45
S'Pomac'
p3983
sg49
I20
sg52
F0.6174517244261294
sg55
S'line'
p3984
sg59
S'500'
p3985
sg63
I14
sg66
S'8'
p3986
ssg15
S'McC94-33'
p3987
sbsI346
(idataset.study
Study
p3988
(dp3989
g7
I346
sg8
(dp3990
g10
F0.55
sg17
S'Coris caudimacula'
p3991
sg21
F0.48
sg24
S'Coris '
p3992
sg28
F0.12146408682273897
sg31
F1.342
sg34
S'8500'
p3993
sg38
F1.459
sg45
S'Labri'
p3994
sg49
I20
sg52
F0.049143125698244756
sg55
S'line'
p3995
sg59
S'500'
p3996
sg63
I14
sg66
S'20'
p3997
ssg15
S'McC94-34'
p3998
sbsI347
(idataset.study
Study
p3999
(dp4000
g7
I347
sg8
(dp4001
g10
F0.05
sg17
S'Coris gaimard'
p4002
sg21
F0.33
sg24
S'Coris '
p4003
sg28
F0.12450373716848288
sg31
F0.224
sg34
S'8500'
p4004
sg38
F0.898
sg45
S'Labri'
p4005
sg49
I20
sg52
F-0.45728685779713696
sg55
S'line'
p4006
sg59
S'500'
p4007
sg63
I14
sg66
S'38'
p4008
ssg15
S'McC94-35'
p4009
sbsI348
(idataset.study
Study
p4010
(dp4011
g7
I348
sg8
(dp4012
g10
F31.4
sg17
S'Dascyllus aruanus'
p4013
sg21
F7.58
sg24
S'Dascyllus '
p4014
sg28
F0.12339251701850885
sg31
F79.604
sg34
S'8500'
p4015
sg38
F26.603
sg45
S'Pomac'
p4016
sg49
I20
sg52
F0.36544260851157545
sg55
S'line'
p4017
sg59
S'500'
p4018
sg63
I14
sg66
S'8'
p4019
ssg15
S'McC94-36'
p4020
sbsI349
(idataset.study
Study
p4021
(dp4022
g7
I349
sg8
(dp4023
g10
F4.45
sg17
S'Dascyllus trimaculatus'
p4024
sg21
F2.2
sg24
S'Dascyllus '
p4025
sg28
F0.12253927584709903
sg31
F7.826
sg34
S'8500'
p4026
sg38
F8.232
sg45
S'Pomac'
p4027
sg49
I20
sg52
F0.27482339867609024
sg55
S'line'
p4028
sg59
S'500'
p4029
sg63
I14
sg66
S'14'
p4030
ssg15
S'McC94-37'
p4031
sbsI350
(idataset.study
Study
p4032
(dp4033
g7
I350
sg8
(dp4034
g10
F0.25
sg17
S'Diodon hystrix'
p4035
sg21
F0.2
sg24
S'Diodon '
p4036
sg28
F0.1214971701955227
sg31
F0.85
sg34
S'8500'
p4037
sg38
F0.449
sg45
S'Diodo'
p4038
sg49
I20
sg52
F0.06829872731381173
sg55
S'line'
p4039
sg59
S'500'
p4040
sg63
I14
sg66
S'90'
p4041
ssg15
S'McC94-38'
p4042
sbsI351
(idataset.study
Study
p4043
(dp4044
g7
I351
sg8
(dp4045
g10
F0.05
sg17
S'Diodon liturosus'
p4046
sg21
F0.0
sg24
S'Diodon '
p4047
sg28
F0.12260492971428302
sg31
F0.224
sg34
S'8500'
p4048
sg38
F0.0
sg45
S'Diodo'
p4049
sg49
I20
sg52
F0.2828292124735141
sg55
S'line'
p4050
sg59
S'500'
p4051
sg63
I14
sg66
S'45'
p4052
ssg15
S'McC94-39'
p4053
sbsI352
(idataset.study
Study
p4054
(dp4055
g7
I352
sg8
(dp4056
g10
F0.35
sg17
S'Halichoeres nebulosus'
p4057
sg21
F0.0
sg24
S'Halichoeres '
p4058
sg28
F0.12999657162364542
sg31
F0.581
sg34
S'8500'
p4059
sg38
F0.0
sg45
S'Labri'
p4060
sg49
I20
sg52
F0.7632981155911706
sg55
S'line'
p4061
sg59
S'500'
p4062
sg63
I14
sg66
S'12'
p4063
ssg15
S'McC94-40'
p4064
sbsI353
(idataset.study
Study
p4065
(dp4066
g7
I353
sg8
(dp4067
g10
F0.05
sg17
S'Labrichthys unilineatus'
p4068
sg21
F0.62
sg24
S'Labrichthys '
p4069
sg28
F0.1273675628760636
sg31
F0.224
sg34
S'8500'
p4070
sg38
F1.347
sg45
S'Labri'
p4071
sg49
I20
sg52
F-0.6354930514407436
sg55
S'line'
p4072
sg59
S'500'
p4073
sg63
I14
sg66
S'17'
p4074
ssg15
S'McC94-41'
p4075
sbsI354
(idataset.study
Study
p4076
(dp4077
g7
I354
sg8
(dp4078
g10
F2.0
sg17
S'Leptoscarus vaigiensis'
p4079
sg21
F0.23
sg24
S'Leptoscarus '
p4080
sg28
F0.12603550524957907
sg31
F3.98
sg34
S'8500'
p4081
sg38
F0.561
sg45
S'Scari'
p4082
sg49
I20
sg52
F0.5597066194253191
sg55
S'line'
p4083
sg59
S'500'
p4084
sg63
I14
sg66
S'35'
p4085
ssg15
S'McC94-42'
p4086
sbsI355
(idataset.study
Study
p4087
(dp4088
g7
I355
sg8
(dp4089
g10
F0.25
sg17
S'Naso annulatus'
p4090
sg21
F4.93
sg24
S'Naso '
p4091
sg28
F0.12416048664270322
sg31
F0.671
sg34
S'8500'
p4092
sg38
F16.613
sg45
S'Acant'
p4093
sg49
I20
sg52
F-0.4310107128146151
sg55
S'line'
p4094
sg59
S'500'
p4095
sg63
I14
sg66
S'100'
p4096
ssg15
S'McC94-43'
p4097
sbsI356
(idataset.study
Study
p4098
(dp4099
g7
I356
sg8
(dp4100
g10
F0.0
sg17
S'Neopomacentrus azysron'
p4101
sg21
F15.5
sg24
S'Neopomacentrus '
p4102
sg28
F0.1326637982662418
sg31
F0.0
sg34
S'8500'
p4103
sg38
F27.164
sg45
S'Pomac'
p4104
sg49
I20
sg52
F-0.874068318246111
sg55
S'line'
p4105
sg59
S'500'
p4106
sg63
I14
sg66
S'8'
p4107
ssg15
S'McC94-44'
p4108
sbsI357
(idataset.study
Study
p4109
(dp4110
g7
I357
sg8
(dp4111
g10
F0.05
sg17
S'Novaculichthys taeniorus'
p4112
sg21
F0.4
sg24
S'Novaculichthys '
p4113
sg28
F0.12325504851283661
sg31
F0.224
sg34
S'8500'
p4114
sg38
F1.497
sg45
S'Labri'
p4115
sg49
I20
sg52
F-0.35242083044285616
sg55
S'line'
p4116
sg59
S'500'
p4117
sg63
I14
sg66
S'25'
p4118
ssg15
S'McC94-45'
p4119
sbsI358
(idataset.study
Study
p4120
(dp4121
g7
I358
sg8
(dp4122
g10
F0.0
sg17
S'Paracanthurus hepatus'
p4123
sg21
F0.13
sg24
S'Paracanthurus '
p4124
sg28
F0.12389756556495556
sg31
F0.0
sg34
S'8500'
p4125
sg38
F0.486
sg45
S'Acant'
p4126
sg49
I20
sg52
F-0.4097457763957065
sg55
S'line'
p4127
sg59
S'500'
p4128
sg63
I14
sg66
S'31'
p4129
ssg15
S'McC94-46'
p4130
sbsI359
(idataset.study
Study
p4131
(dp4132
g7
I359
sg8
(dp4133
g10
F0.0
sg17
S'Plectroglyphidodon johnstionus'
p4134
sg21
F0.58
sg24
S'Plectroglyphidodon '
p4135
sg28
F0.12389371610088684
sg31
F0.0
sg34
S'8500'
p4136
sg38
F2.17
sg45
S'Pomac'
p4137
sg49
I20
sg52
F-0.40942622988451516
sg55
S'line'
p4138
sg59
S'500'
p4139
sg63
I14
sg66
S'10'
p4140
ssg15
S'McC94-47'
p4141
sbsI360
(idataset.study
Study
p4142
(dp4143
g7
I360
sg8
(dp4144
g10
F3.15
sg17
S'Plectroglyphidodon lacrymatus'
p4145
sg21
F22.27
sg24
S'Plectroglyphidodon '
p4146
sg28
F0.1987343401028413
sg31
F3.846
sg34
S'8500'
p4147
sg38
F11.898
sg45
S'Pomac'
p4148
sg49
I20
sg52
F-2.2927695631812526
sg55
S'line'
p4149
sg59
S'500'
p4150
sg63
I14
sg66
S'12'
p4151
ssg15
S'McC94-48'
p4152
sbsI361
(idataset.study
Study
p4153
(dp4154
g7
I361
sg8
(dp4155
g10
F0.0
sg17
S'Pomacanthus chrysurus'
p4156
sg21
F0.37
sg24
S'Pomacanthus '
p4157
sg28
F0.1307733741868363
sg31
F0.0
sg34
S'8500'
p4158
sg38
F0.711
sg45
S'Pomaa'
p4159
sg49
I20
sg52
F-0.7971490372333218
sg55
S'line'
p4160
sg59
S'500'
p4161
sg63
I14
sg66
S'33'
p4162
ssg15
S'McC94-49'
p4163
sbsI362
(idataset.study
Study
p4164
(dp4165
g7
I362
sg8
(dp4166
g10
F0.0
sg17
S'Pomacentrus baenschi'
p4167
sg21
F0.07
sg24
S'Pomacentrus '
p4168
sg28
F0.12389176980607042
sg31
F0.0
sg34
S'8500'
p4169
sg38
F0.262
sg45
S'Pomac'
p4170
sg49
I20
sg52
F-0.4092645717258348
sg55
S'line'
p4171
sg59
S'500'
p4172
sg63
I14
sg66
S'10'
p4173
ssg15
S'McC94-50'
p4174
sbsI363
(idataset.study
Study
p4175
(dp4176
g7
I363
sg8
(dp4177
g10
F0.25
sg17
S'Pomacentrus caeruleus'
p4178
sg21
F1.48
sg24
S'Pomacentrus '
p4179
sg28
F0.15832909801033
sg31
F0.85
sg34
S'8500'
p4180
sg38
F0.599
sg45
S'Pomac'
p4181
sg49
I20
sg52
F-1.5840567564199153
sg55
S'line'
p4182
sg59
S'500'
p4183
sg63
I14
sg66
S'8'
p4184
ssg15
S'McC94-51'
p4185
sbsI364
(idataset.study
Study
p4186
(dp4187
g7
I364
sg8
(dp4188
g10
F0.0
sg17
S'Pomacentrus pavo'
p4189
sg21
F0.27
sg24
S'Pomacentrus '
p4190
sg28
F0.12389455780627458
sg31
F0.0
sg34
S'8500'
p4191
sg38
F1.01
sg45
S'Pomac'
p4192
sg49
I20
sg52
F-0.4094961216956939
sg55
S'line'
p4193
sg59
S'500'
p4194
sg63
I14
sg66
S'11'
p4195
ssg15
S'McC94-52'
p4196
sbsI365
(idataset.study
Study
p4197
(dp4198
g7
I365
sg8
(dp4199
g10
F0.0
sg17
S'Pseudobalistes fuscus'
p4200
sg21
F0.13
sg24
S'Pseudobalistes '
p4201
sg28
F0.12389756556495556
sg31
F0.0
sg34
S'8500'
p4202
sg38
F0.486
sg45
S'Balis'
p4203
sg49
I20
sg52
F-0.4097457763957065
sg55
S'line'
p4204
sg59
S'500'
p4205
sg63
I14
sg66
S'55'
p4206
ssg15
S'McC94-53'
p4207
sbsI366
(idataset.study
Study
p4208
(dp4209
g7
I366
sg8
(dp4210
g10
F0.2
sg17
S'Pseudocheilinus hexataenia'
p4211
sg21
F0.07
sg24
S'Pseudocheilinus '
p4212
sg28
F0.123706916236272
sg31
F0.358
sg34
S'8500'
p4213
sg38
F0.262
sg45
S'Labri'
p4214
sg49
I20
sg52
F0.39360824041633014
sg55
S'line'
p4215
sg59
S'500'
p4216
sg63
I14
sg66
S'7'
p4217
ssg15
S'McC94-54'
p4218
sbsI367
(idataset.study
Study
p4219
(dp4220
g7
I367
sg8
(dp4221
g10
F0.45
sg17
S'Rhinecanthus aculeatus'
p4222
sg21
F0.33
sg24
S'Rhinecanthus '
p4223
sg28
F0.12151179651872458
sg31
F1.744
sg34
S'8500'
p4224
sg38
F1.235
sg45
S'Balis'
p4225
sg49
I20
sg52
F0.07522835988119644
sg55
S'line'
p4226
sg59
S'500'
p4227
sg63
I14
sg66
S'25'
p4228
ssg15
S'McC94-55'
p4229
sbsI368
(idataset.study
Study
p4230
(dp4231
g7
I368
sg8
(dp4232
g10
F0.1
sg17
S'Scarus russelii'
p4233
sg21
F0.63
sg24
S'Scarus '
p4234
sg28
F0.13730584209987917
sg31
F0.268
sg34
S'8500'
p4235
sg38
F0.711
sg45
S'Scari'
p4236
sg49
I20
sg52
F-1.039064197077797
sg55
S'line'
p4237
sg59
S'500'
p4238
sg63
I14
sg66
S'51'
p4239
ssg15
S'McC94-56'
p4240
sbsI369
(idataset.study
Study
p4241
(dp4242
g7
I369
sg8
(dp4243
g10
F0.0
sg17
S'Scarus viridifucatus'
p4244
sg21
F3.33
sg24
S'Scarus '
p4245
sg28
F0.12389323856789898
sg31
F0.0
sg34
S'8500'
p4246
sg38
F12.46
sg45
S'Scari'
p4247
sg49
I20
sg52
F-0.4093865721714307
sg55
S'line'
p4248
sg59
S'500'
p4249
sg63
I14
sg66
S'32'
p4250
ssg15
S'McC94-57'
p4251
sbsI370
(idataset.study
Study
p4252
(dp4253
g7
I370
sg8
(dp4254
g10
F4.35
sg17
S'Stegastes nigricans'
p4255
sg21
F6.27
sg24
S'Stegastes '
p4256
sg28
F0.12165491800752448
sg31
F7.379
sg34
S'8500'
p4257
sg38
F21.964
sg45
S'Pomac'
p4258
sg49
I20
sg52
F-0.12406275576823121
sg55
S'line'
p4259
sg59
S'500'
p4260
sg63
I14
sg66
S'13'
p4261
ssg15
S'McC94-58'
p4262
sbsI371
(idataset.study
Study
p4263
(dp4264
g7
I371
sg8
(dp4265
g10
F0.55
sg17
S'Stethojulis strigiventer'
p4266
sg21
F0.0
sg24
S'Stethojulis '
p4267
sg28
F0.12451575599675693
sg31
F1.521
sg34
S'8500'
p4268
sg38
F0.0
sg45
S'Labri'
p4269
sg49
I20
sg52
F0.4581796052167908
sg55
S'line'
p4270
sg59
S'500'
p4271
sg63
I14
sg66
S'14'
p4272
ssg15
S'McC94-59'
p4273
sbsI372
(idataset.study
Study
p4274
(dp4275
g7
I372
sg8
(dp4276
g10
F0.0
sg17
S'Sufflamen chrysopterus'
p4277
sg21
F1.13
sg24
S'Sufflamen '
p4278
sg28
F0.1291101724063101
sg31
F0.0
sg34
S'8500'
p4279
sg38
F2.395
sg45
S'Balis'
p4280
sg49
I20
sg52
F-0.722737065941847
sg55
S'line'
p4281
sg59
S'500'
p4282
sg63
I14
sg66
S'30'
p4283
ssg15
S'McC94-60'
p4284
sbsI373
(idataset.study
Study
p4285
(dp4286
g7
I373
sg8
(dp4287
g10
F0.75
sg17
S'Thalassoma lunare'
p4288
sg21
F4.52
sg24
S'Thalassoma '
p4289
sg28
F0.12766547204619313
sg31
F1.342
sg34
S'8500'
p4290
sg38
F8.718
sg45
S'Labri'
p4291
sg49
I20
sg52
F-0.6512367019742332
sg55
S'line'
p4292
sg59
S'500'
p4293
sg63
I14
sg66
S'25'
p4294
ssg15
S'McC94-61'
p4295
sbsI374
(idataset.study
Study
p4296
(dp4297
g7
I374
sg8
(dp4298
g10
F0.0
sg17
S'Acanthurus leucosternon'
p4299
sg21
F7.33
sg24
S'Acanthurus '
p4300
sg28
F0.1304559332531862
sg31
F0.0
sg34
S'8500'
p4301
sg38
F14.331
sg45
S'Acant'
p4302
sg49
I20
sg52
F-0.7834925679761123
sg55
S'line'
p4303
sg59
S'500'
p4304
sg63
I14
sg66
S'23'
p4305
ssg15
S'McC94-62'
p4306
sbsI375
(idataset.study
Study
p4307
(dp4308
g7
I375
sg8
(dp4309
g10
F0.0
sg17
S'Acanthurus nigricauda'
p4310
sg21
F0.57
sg24
S'Acanthurus '
p4311
sg28
F0.12796157675795444
sg31
F0.0
sg34
S'8500'
p4312
sg38
F1.31
sg45
S'Acant'
p4313
sg49
I20
sg52
F-0.6665165882392167
sg55
S'line'
p4314
sg59
S'500'
p4315
sg63
I14
sg66
S'50'
p4316
ssg15
S'McC94-63'
p4317
sbsI376
(idataset.study
Study
p4318
(dp4319
g7
I376
sg8
(dp4320
g10
F1.45
sg17
S'Acanthurus triostegus'
p4321
sg21
F3.2
sg24
S'Acanthurus '
p4322
sg28
F0.12211535181247865
sg31
F2.683
sg34
S'8500'
p4323
sg38
F11.973
sg45
S'Acant'
p4324
sg49
I20
sg52
F-0.21610429451006102
sg55
S'line'
p4325
sg59
S'500'
p4326
sg63
I14
sg66
S'27'
p4327
ssg15
S'McC94-64'
p4328
sbsI377
(idataset.study
Study
p4329
(dp4330
g7
I377
sg8
(dp4331
g10
F0.1
sg17
S'Amblyglyphidodon leucogaster'
p4332
sg21
F0.08
sg24
S'Amblyglyphidodon '
p4333
sg28
F0.12146475834365955
sg31
F0.447
sg34
S'8500'
p4334
sg38
F0.299
sg45
S'Pomac'
p4335
sg49
I20
sg52
F0.04960554632289306
sg55
S'line'
p4336
sg59
S'500'
p4337
sg63
I14
sg66
S'13'
p4338
ssg15
S'McC94-65'
p4339
sbsI378
(idataset.study
Study
p4340
(dp4341
g7
I378
sg8
(dp4342
g10
F0.0
sg17
S'Anampses meleagrides'
p4343
sg21
F0.13
sg24
S'Anampses '
p4344
sg28
F0.12389756556495556
sg31
F0.0
sg34
S'8500'
p4345
sg38
F0.486
sg45
S'Labri'
p4346
sg49
I20
sg52
F-0.4097457763957065
sg55
S'line'
p4347
sg59
S'500'
p4348
sg63
I14
sg66
S'22'
p4349
ssg15
S'McC94-66'
p4350
sbsI379
(idataset.study
Study
p4351
(dp4352
g7
I379
sg8
(dp4353
g10
F0.0
sg17
S'Bodianus axillaris'
p4354
sg21
F0.47
sg24
S'Bodianus '
p4355
sg28
F0.1279036066023464
sg31
F0.0
sg34
S'8500'
p4356
sg38
F1.085
sg45
S'Labri'
p4357
sg49
I20
sg52
F-0.6635528553300762
sg55
S'line'
p4358
sg59
S'500'
p4359
sg63
I14
sg66
S'20'
p4360
ssg15
S'McC94-67'
p4361
sbsI380
(idataset.study
Study
p4362
(dp4363
g7
I380
sg8
(dp4364
g10
F0.75
sg17
S'Calotomus carolinus'
p4365
sg21
F3.12
sg24
S'Calotomus '
p4366
sg28
F0.12298113990535321
sg31
F3.041
sg34
S'8500'
p4367
sg38
F10.551
sg45
S'Scari'
p4368
sg49
I20
sg52
F-0.3249225391091871
sg55
S'line'
p4369
sg59
S'500'
p4370
sg63
I14
sg66
S'54'
p4371
ssg15
S'McC94-68'
p4372
sbsI381
(idataset.study
Study
p4373
(dp4374
g7
I381
sg8
(dp4375
g10
F0.05
sg17
S'Cetoscarus bicolor'
p4376
sg21
F0.07
sg24
S'Cetoscarus '
p4377
sg28
F0.12152578890848997
sg31
F0.224
sg34
S'8500'
p4378
sg38
F0.262
sg45
S'Scari'
p4379
sg49
I20
sg52
F-0.08130675638876203
sg55
S'line'
p4380
sg59
S'500'
p4381
sg63
I14
sg66
S'80'
p4382
ssg15
S'McC94-69'
p4383
sbsI382
(idataset.study
Study
p4384
(dp4385
g7
I382
sg8
(dp4386
g10
F0.75
sg17
S'Chaetodon auriga'
p4387
sg21
F2.88
sg24
S'Chaetodon '
p4388
sg28
F0.12920912345776123
sg31
F0.447
sg34
S'8500'
p4389
sg38
F4.453
sg45
S'Chaet'
p4390
sg49
I20
sg52
F-0.7273771635024748
sg55
S'line'
p4391
sg59
S'500'
p4392
sg63
I14
sg66
S'22'
p4393
ssg15
S'McC94-70'
p4394
sbsI383
(idataset.study
Study
p4395
(dp4396
g7
I383
sg8
(dp4397
g10
F0.05
sg17
S'Chaetodon lunula'
p4398
sg21
F0.22
sg24
S'Chaetodon '
p4399
sg28
F0.12505578779104415
sg31
F0.224
sg34
S'8500'
p4400
sg38
F0.449
sg45
S'Chaet'
p4401
sg49
I20
sg52
F-0.49663941914445925
sg55
S'line'
p4402
sg59
S'500'
p4403
sg63
I14
sg66
S'20'
p4404
ssg15
S'McC94-71'
p4405
sbsI384
(idataset.study
Study
p4406
(dp4407
g7
I384
sg8
(dp4408
g10
F0.05
sg17
S'Chaetodon melannotus'
p4409
sg21
F0.0
sg24
S'Chaetodon '
p4410
sg28
F0.12260492971428302
sg31
F0.224
sg34
S'8500'
p4411
sg38
F0.0
sg45
S'Chaet'
p4412
sg49
I20
sg52
F0.2828292124735141
sg55
S'line'
p4413
sg59
S'500'
p4414
sg63
I14
sg66
S'15'
p4415
ssg15
S'McC94-72'
p4416
sbsI385
(idataset.study
Study
p4417
(dp4418
g7
I385
sg8
(dp4419
g10
F0.0
sg17
S'Chaetodon trifascialis'
p4420
sg21
F0.87
sg24
S'Chaetodon '
p4421
sg28
F0.12546419066704945
sg31
F0.0
sg34
S'8500'
p4422
sg38
F2.544
sg45
S'Chaet'
p4423
sg49
I20
sg52
F-0.5238531361140317
sg55
S'line'
p4424
sg59
S'500'
p4425
sg63
I14
sg66
S'18'
p4426
ssg15
S'McC94-73'
p4427
sbsI386
(idataset.study
Study
p4428
(dp4429
g7
I386
sg8
(dp4430
g10
F0.3
sg17
S'Chaetodon trifasciatus'
p4431
sg21
F2.47
sg24
S'Chaetodon '
p4432
sg28
F0.1400555935203306
sg31
F0.85
sg34
S'8500'
p4433
sg38
F2.769
sg45
S'Chaet'
p4434
sg49
I20
sg52
F-1.1254499110309724
sg55
S'line'
p4435
sg59
S'500'
p4436
sg63
I14
sg66
S'15'
p4437
ssg15
S'McC94-74'
p4438
sbsI387
(idataset.study
Study
p4439
(dp4440
g7
I387
sg8
(dp4441
g10
F0.05
sg17
S'Chaetodon xantocephalus'
p4442
sg21
F0.53
sg24
S'Chaetodon '
p4443
sg28
F0.12869959800533556
sg31
F0.224
sg34
S'8500'
p4444
sg38
F1.01
sg45
S'Chaet'
p4445
sg49
I20
sg52
F-0.7031570288491483
sg55
S'line'
p4446
sg59
S'500'
p4447
sg63
I14
sg66
S'20'
p4448
ssg15
S'McC94-75'
p4449
sbsI388
(idataset.study
Study
p4450
(dp4451
g7
I388
sg8
(dp4452
g10
F0.0
sg17
S'Cheilinus trilobatus'
p4453
sg21
F0.47
sg24
S'Cheilinus '
p4454
sg28
F0.1279036066023464
sg31
F0.0
sg34
S'8500'
p4455
sg38
F1.085
sg45
S'Labri'
p4456
sg49
I20
sg52
F-0.6635528553300762
sg55
S'line'
p4457
sg59
S'500'
p4458
sg63
I14
sg66
S'45'
p4459
ssg15
S'McC94-76'
p4460
sbsI389
(idataset.study
Study
p4461
(dp4462
g7
I389
sg8
(dp4463
g10
F6.9
sg17
S'Chromis viridis'
p4464
sg21
F8.98
sg24
S'Chromis '
p4465
sg28
F0.1217121013858136
sg31
F17.799
sg34
S'8500'
p4466
sg38
F7.97
sg45
S'Pomac'
p4467
sg49
I20
sg52
F-0.13885257322955205
sg55
S'line'
p4468
sg59
S'500'
p4469
sg63
I14
sg66
S'9'
p4470
ssg15
S'McC94-77'
p4471
sbsI390
(idataset.study
Study
p4472
(dp4473
g7
I390
sg8
(dp4474
g10
F0.05
sg17
S'Coris frerei'
p4475
sg21
F0.13
sg24
S'Coris '
p4476
sg28
F0.12298405110726825
sg31
F0.224
sg34
S'8500'
p4477
sg38
F0.262
sg45
S'Labri'
p4478
sg49
I20
sg52
F-0.32522702555504807
sg55
S'line'
p4479
sg59
S'500'
p4480
sg63
I14
sg66
S'60'
p4481
ssg15
S'McC94-78'
p4482
sbsI391
(idataset.study
Study
p4483
(dp4484
g7
I391
sg8
(dp4485
g10
F0.0
sg17
S'Ctenochaetus strigosus'
p4486
sg21
F3.33
sg24
S'Ctenochaetus '
p4487
sg28
F0.126173631185815
sg31
F0.0
sg34
S'8500'
p4488
sg38
F8.98
sg45
S'Acant'
p4489
sg49
I20
sg52
F-0.5680352660641454
sg55
S'line'
p4490
sg59
S'500'
p4491
sg63
I14
sg66
S'19'
p4492
ssg15
S'McC94-79'
p4493
sbsI392
(idataset.study
Study
p4494
(dp4495
g7
I392
sg8
(dp4496
g10
F0.0
sg17
S'Dascyllus carneus'
p4497
sg21
F2.38
sg24
S'Dascyllus '
p4498
sg28
F0.13096616512737297
sg31
F0.0
sg34
S'8500'
p4499
sg38
F4.527
sg45
S'Pomac'
p4500
sg49
I20
sg52
F-0.8053299767911941
sg55
S'line'
p4501
sg59
S'500'
p4502
sg63
I14
sg66
S'6'
p4503
ssg15
S'McC94-80'
p4504
sbsI393
(idataset.study
Study
p4505
(dp4506
g7
I393
sg8
(dp4507
g10
F5.5
sg17
S'Gomphosus caeruleus'
p4508
sg21
F8.47
sg24
S'Gomphosus '
p4509
sg28
F0.12269626659174657
sg31
F12.611
sg34
S'8500'
p4510
sg38
F2.769
sg45
S'Labri'
p4511
sg49
I20
sg52
F-0.29360393576365595
sg55
S'line'
p4512
sg59
S'500'
p4513
sg63
I14
sg66
S'28'
p4514
ssg15
S'McC94-81'
p4515
sbsI394
(idataset.study
Study
p4516
(dp4517
g7
I394
sg8
(dp4518
g10
F0.95
sg17
S'Halichoeres hortulanus'
p4519
sg21
F6.82
sg24
S'Halichoeres '
p4520
sg28
F0.13644355747116416
sg31
F1.476
sg34
S'8500'
p4521
sg38
F8.718
sg45
S'Labri'
p4522
sg49
I20
sg52
F-1.0104548732607044
sg55
S'line'
p4523
sg59
S'500'
p4524
sg63
I14
sg66
S'27'
p4525
ssg15
S'McC94-82'
p4526
sbsI395
(idataset.study
Study
p4527
(dp4528
g7
I395
sg8
(dp4529
g10
F7.55
sg17
S'Halichoeres scapularis'
p4530
sg21
F0.0
sg24
S'Halichoeres '
p4531
sg28
F0.13130725305989516
sg31
F11.672
sg34
S'8500'
p4532
sg38
F0.0
sg45
S'Labri'
p4533
sg49
I20
sg52
F0.8196037767909646
sg55
S'line'
p4534
sg59
S'500'
p4535
sg63
I14
sg66
S'20'
p4536
ssg15
S'McC94-83'
p4537
sbsI396
(idataset.study
Study
p4538
(dp4539
g7
I396
sg8
(dp4540
g10
F0.0
sg17
S'Hemigymnus fasciatus'
p4541
sg21
F0.13
sg24
S'Hemigymnus '
p4542
sg28
F0.12389756556495556
sg31
F0.0
sg34
S'8500'
p4543
sg38
F0.486
sg45
S'Labri'
p4544
sg49
I20
sg52
F-0.4097457763957065
sg55
S'line'
p4545
sg59
S'500'
p4546
sg63
I14
sg66
S'50'
p4547
ssg15
S'McC94-84'
p4548
sbsI397
(idataset.study
Study
p4549
(dp4550
g7
I397
sg8
(dp4551
g10
F0.45
sg17
S'Hemigymnus melapterus'
p4552
sg21
F0.27
sg24
S'Hemigymnus '
p4553
sg28
F0.12165682095254818
sg31
F1.744
sg34
S'8500'
p4554
sg38
F0.673
sg45
S'Labri'
p4555
sg49
I20
sg52
F0.12458317555119147
sg55
S'line'
p4556
sg59
S'500'
p4557
sg63
I14
sg66
S'50'
p4558
ssg15
S'McC94-85'
p4559
sbsI398
(idataset.study
Study
p4560
(dp4561
g7
I398
sg8
(dp4562
g10
F0.0
sg17
S'Labroides bicolor'
p4563
sg21
F0.27
sg24
S'Labroides '
p4564
sg28
F0.1320788479103704
sg31
F0.0
sg34
S'8500'
p4565
sg38
F0.486
sg45
S'Labri'
p4566
sg49
I20
sg52
F-0.8510104586680058
sg55
S'line'
p4567
sg59
S'500'
p4568
sg63
I14
sg66
S'14'
p4569
ssg15
S'McC94-86'
p4570
sbsI399
(idataset.study
Study
p4571
(dp4572
g7
I399
sg8
(dp4573
g10
F1.15
sg17
S'Labroides dimidiatus'
p4574
sg21
F6.65
sg24
S'Labroides '
p4575
sg28
F0.12858196923374432
sg31
F2.996
sg34
S'8500'
p4576
sg38
F11.524
sg45
S'Labri'
p4577
sg49
I20
sg52
F-0.6974460916456242
sg55
S'line'
p4578
sg59
S'500'
p4579
sg63
I14
sg66
S'12'
p4580
ssg15
S'McC94-87'
p4581
sbsI400
(idataset.study
Study
p4582
(dp4583
g7
I400
sg8
(dp4584
g10
F0.05
sg17
S'Naso unicornis'
p4585
sg21
F0.0
sg24
S'Naso '
p4586
sg28
F0.12260492971428302
sg31
F0.224
sg34
S'8500'
p4587
sg38
F0.0
sg45
S'Acant'
p4588
sg49
I20
sg52
F0.2828292124735141
sg55
S'line'
p4589
sg59
S'500'
p4590
sg63
I14
sg66
S'70'
p4591
ssg15
S'McC94-88'
p4592
sbsI401
(idataset.study
Study
p4593
(dp4594
g7
I401
sg8
(dp4595
g10
F0.05
sg17
S'Plectroglyphidodon dickii'
p4596
sg21
F3.93
sg24
S'Plectroglyphidodon '
p4597
sg28
F0.14626917598229314
sg31
F0.224
sg34
S'8500'
p4598
sg38
F4.565
sg45
S'Pomac'
p4599
sg49
I20
sg52
F-1.2996773098169703
sg55
S'line'
p4600
sg59
S'500'
p4601
sg63
I14
sg66
S'11'
p4602
ssg15
S'McC94-89'
p4603
sbsI402
(idataset.study
Study
p4604
(dp4605
g7
I402
sg8
(dp4606
g10
F0.1
sg17
S'Pomacanthus semicirculatus'
p4607
sg21
F0.22
sg24
S'Pomacanthus '
p4608
sg28
F0.12304938215221589
sg31
F0.268
sg34
S'8500'
p4609
sg38
F0.449
sg45
S'Pomaa'
p4610
sg49
I20
sg52
F-0.33198664010442236
sg55
S'line'
p4611
sg59
S'500'
p4612
sg63
I14
sg66
S'38'
p4613
ssg15
S'McC94-90'
p4614
sbsI403
(idataset.study
Study
p4615
(dp4616
g7
I403
sg8
(dp4617
g10
F0.0
sg17
S'Pomacentrus sulfureus'
p4618
sg21
F11.38
sg24
S'Pomacentrus '
p4619
sg28
F0.12924606607530492
sg31
F0.0
sg34
S'8500'
p4620
sg38
F23.909
sg45
S'Pomac'
p4621
sg49
I20
sg52
F-0.7291019379880141
sg55
S'line'
p4622
sg59
S'500'
p4623
sg63
I14
sg66
S'10'
p4624
ssg15
S'McC94-91'
p4625
sbsI404
(idataset.study
Study
p4626
(dp4627
g7
I404
sg8
(dp4628
g10
F0.0
sg17
S'Scarus atrilunula'
p4629
sg21
F0.27
sg24
S'Scarus '
p4630
sg28
F0.12389455780627458
sg31
F0.0
sg34
S'8500'
p4631
sg38
F1.01
sg45
S'Scari'
p4632
sg49
I20
sg52
F-0.4094961216956939
sg55
S'line'
p4633
sg59
S'500'
p4634
sg63
I14
sg66
S'30'
p4635
ssg15
S'McC94-92'
p4636
sbsI405
(idataset.study
Study
p4637
(dp4638
g7
I405
sg8
(dp4639
g10
F0.0
sg17
S'Scarus falcipinnis'
p4640
sg21
F0.13
sg24
S'Scarus '
p4641
sg28
F0.12389756556495556
sg31
F0.0
sg34
S'8500'
p4642
sg38
F0.486
sg45
S'Scari'
p4643
sg49
I20
sg52
F-0.4097457763957065
sg55
S'line'
p4644
sg59
S'500'
p4645
sg63
I14
sg66
S'47'
p4646
ssg15
S'McC94-93'
p4647
sbsI406
(idataset.study
Study
p4648
(dp4649
g7
I406
sg8
(dp4650
g10
F0.0
sg17
S'Scarus frenatus'
p4651
sg21
F1.17
sg24
S'Scarus '
p4652
sg28
F0.2058542228305777
sg31
F0.0
sg34
S'8500'
p4653
sg38
F0.748
sg45
S'Scari'
p4654
sg49
I20
sg52
F-2.396026772666872
sg55
S'line'
p4655
sg59
S'500'
p4656
sg63
I14
sg66
S'47'
p4657
ssg15
S'McC94-94'
p4658
sbsI407
(idataset.study
Study
p4659
(dp4660
g7
I407
sg8
(dp4661
g10
F1.05
sg17
S'Scarus ghobban'
p4662
sg21
F0.53
sg24
S'Scarus '
p4663
sg28
F0.12284619827592208
sg31
F1.923
sg34
S'8500'
p4664
sg38
F1.085
sg45
S'Scari'
p4665
sg49
I20
sg52
F0.3104812806271013
sg55
S'line'
p4666
sg59
S'500'
p4667
sg63
I14
sg66
S'75'
p4668
ssg15
S'McC94-95'
p4669
sbsI408
(idataset.study
Study
p4670
(dp4671
g7
I408
sg8
(dp4672
g10
F0.0
sg17
S'Scarus scaber'
p4673
sg21
F1.8
sg24
S'Scarus '
p4674
sg28
F0.12389333747405143
sg31
F0.0
sg34
S'8500'
p4675
sg38
F6.735
sg45
S'Scari'
p4676
sg49
I20
sg52
F-0.4093947863525373
sg55
S'line'
p4677
sg59
S'500'
p4678
sg63
I14
sg66
S'37'
p4679
ssg15
S'McC94-96'
p4680
sbsI409
(idataset.study
Study
p4681
(dp4682
g7
I409
sg8
(dp4683
g10
F5.35
sg17
S'Stethojulis albovittata'
p4684
sg21
F5.42
sg24
S'Stethojulis '
p4685
sg28
F0.12143040043105963
sg31
F5.143
sg34
S'8500'
p4686
sg38
F7.334
sg45
S'Labri'
p4687
sg49
I20
sg52
F-0.011152227095868236
sg55
S'line'
p4688
sg59
S'500'
p4689
sg63
I14
sg66
S'12'
p4690
ssg15
S'McC94-97'
p4691
sbsI410
(idataset.study
Study
p4692
(dp4693
g7
I410
sg8
(dp4694
g10
F3.1
sg17
S'Thalassoma hardwicke'
p4695
sg21
F17.18
sg24
S'Thalassoma '
p4696
sg28
F0.12466498053555262
sg31
F8.318
sg34
S'8500'
p4697
sg38
F44.862
sg45
S'Labri'
p4698
sg49
I20
sg52
F-0.4691223926383404
sg55
S'line'
p4699
sg59
S'500'
p4700
sg63
I14
sg66
S'18'
p4701
ssg15
S'McC94-98'
p4702
sbsI411
(idataset.study
Study
p4703
(dp4704
g7
I411
sg8
(dp4705
g10
F27.05
sg17
S'Thalassoma hebraicum'
p4706
sg21
F17.4
sg24
S'Thalassoma '
p4707
sg28
F0.12276811055637696
sg31
F40.294
sg34
S'8500'
p4708
sg38
F5.089
sg45
S'Labri'
p4709
sg49
I20
sg52
F0.3018089804674071
sg55
S'line'
p4710
sg59
S'500'
p4711
sg63
I14
sg66
S'23'
p4712
ssg15
S'McC94-99'
p4713
sbsI412
(idataset.study
Study
p4714
(dp4715
g7
I412
sg8
(dp4716
g10
F0.0
sg17
S'Zebrasoma scopas'
p4717
sg21
F3.53
sg24
S'Zebrasoma '
p4718
sg28
F0.12498218281606761
sg31
F0.0
sg34
S'8500'
p4719
sg38
F11.0
sg45
S'Acant'
p4720
sg49
I20
sg52
F-0.49157458676150073
sg55
S'line'
p4721
sg59
S'500'
p4722
sg63
I14
sg66
S'20'
p4723
ssg15
S'McC94-100'
p4724
sbsI413
(idataset.study
Study
p4725
(dp4726
g7
I413
sg8
(dp4727
g10
F0.0
sg17
S'Zebrasoma veliferum'
p4728
sg21
F0.28
sg24
S'Zebrasoma '
p4729
sg28
F0.12811674790201158
sg31
F0.0
sg34
S'8500'
p4730
sg38
F0.636
sg45
S'Acant'
p4731
sg49
I20
sg52
F-0.6743856464916271
sg55
S'line'
p4732
sg59
S'500'
p4733
sg63
I14
sg66
S'40'
p4734
ssg15
S'McC94-101'
p4735
sbsI414
(idataset.study
Study
p4736
(dp4737
g7
I414
sg8
(dp4738
g10
F0.9
sg17
S'Acanthurus nigrofuscus'
p4739
sg21
F15.82
sg24
S'Acanthurus '
p4740
sg28
F0.14069418343915216
sg31
F3.712
sg34
S'8500'
p4741
sg38
F19.457
sg45
S'Acant'
p4742
sg49
I20
sg52
F-1.144579231298336
sg55
S'line'
p4743
sg59
S'500'
p4744
sg63
I14
sg66
S'21'
p4745
ssg15
S'McC94-102'
p4746
sbsI415
(idataset.study
Study
p4747
(dp4748
g7
I415
sg8
(dp4749
g10
F1.2
sg17
S'Cheilinus fasciatus'
p4750
sg21
F0.38
sg24
S'Cheilinus '
p4751
sg28
F0.1249473725465315
sg31
F2.012
sg34
S'8500'
p4752
sg38
F0.823
sg45
S'Labri'
p4753
sg49
I20
sg52
F0.4891609919252399
sg55
S'line'
p4754
sg59
S'500'
p4755
sg63
I14
sg66
S'36'
p4756
ssg15
S'McC94-103'
p4757
sbsI416
(idataset.study
Study
p4758
(dp4759
g7
I416
sg8
(dp4760
g10
F0.0
sg17
S'Chlorurus gibbus'
p4761
sg21
F0.87
sg24
S'Chlorurus'
p4762
sg28
F0.15381713774495698
sg31
F0.0
sg34
S'8500'
p4763
sg38
F0.898
sg45
S'Scari'
p4764
sg49
I20
sg52
F-1.4840561005279476
sg55
S'line'
p4765
sg59
S'500'
p4766
sg63
I14
sg66
S'70'
p4767
ssg15
S'McC94-104'
p4768
sbsI417
(idataset.study
Study
p4769
(dp4770
g7
I417
sg8
(dp4771
g10
F0.0
sg17
S'Chlorurus sordidus'
p4772
sg21
F18.25
sg24
S'Chlorurus'
p4773
sg28
F0.13527427295118366
sg31
F0.0
sg34
S'8500'
p4774
sg38
F28.811
sg45
S'Scari'
p4775
sg49
I20
sg52
F-0.970313198682586
sg55
S'line'
p4776
sg59
S'500'
p4777
sg63
I14
sg66
S'35'
p4778
ssg15
S'McC94-105'
p4779
sbsI418
(idataset.study
Study
p4780
(dp4781
g7
I418
sg8
(dp4782
g10
F0.0
sg17
S'Chromis ternatensis'
p4783
sg21
F0.55
sg24
S'Chromis '
p4784
sg28
F0.12687810197367982
sg31
F0.0
sg34
S'8500'
p4785
sg38
F1.384
sg45
S'Pomac'
p4786
sg49
I20
sg52
F-0.6087430304055822
sg55
S'line'
p4787
sg59
S'500'
p4788
sg63
I14
sg66
S'11'
p4789
ssg15
S'McC94-106'
p4790
sbsI419
(idataset.study
Study
p4791
(dp4792
g7
I419
sg8
(dp4793
g10
F0.65
sg17
S'Chromis weberi'
p4794
sg21
F4.35
sg24
S'Chromis '
p4795
sg28
F0.12347536838232175
sg31
F2.907
sg34
S'8500'
p4796
sg38
F14.78
sg45
S'Pomac'
p4797
sg49
I20
sg52
F-0.3730712972811255
sg55
S'line'
p4798
sg59
S'500'
p4799
sg63
I14
sg66
S'12'
p4800
ssg15
S'McC94-107'
p4801
sbsI420
(idataset.study
Study
p4802
(dp4803
g7
I420
sg8
(dp4804
g10
F0.0
sg17
S'Ctenochaetus striatus'
p4805
sg21
F26.68
sg24
S'Ctenochaetus '
p4806
sg28
F0.1272503055685348
sg31
F0.0
sg34
S'8500'
p4807
sg38
F64.955
sg45
S'Acant'
p4808
sg49
I20
sg52
F-0.6291883037036764
sg55
S'line'
p4809
sg59
S'500'
p4810
sg63
I14
sg66
S'26'
p4811
ssg15
S'McC94-108'
p4812
sbsI421
(idataset.study
Study
p4813
(dp4814
g7
I421
sg8
(dp4815
g10
F0.0
sg17
S'Hipposcarus harid'
p4816
sg21
F0.75
sg24
S'Hipposcarus '
p4817
sg28
F0.12492246164123985
sg31
F0.0
sg34
S'8500'
p4818
sg38
F2.357
sg45
S'Scari'
p4819
sg49
I20
sg52
F-0.48742644005167907
sg55
S'line'
p4820
sg59
S'500'
p4821
sg63
I14
sg66
S'75'
p4822
ssg15
S'McC94-109'
p4823
sbsI422
(idataset.study
Study
p4824
(dp4825
g7
I422
sg8
(dp4826
g10
F0.0
sg17
S'Neoglyphidodon melas'
p4827
sg21
F0.8
sg24
S'Neoglyphidodon '
p4828
sg28
F0.1238938865114269
sg31
F0.0
sg34
S'8500'
p4829
sg38
F2.993
sg45
S'Pomac'
p4830
sg49
I20
sg52
F-0.4094403810497589
sg55
S'line'
p4831
sg59
S'500'
p4832
sg63
I14
sg66
S'18'
p4833
ssg15
S'McC94-110'
p4834
sbsI423
(idataset.study
Study
p4835
(dp4836
g7
I423
sg8
(dp4837
g10
F0.45
sg17
S'Neoglyphidodon melas'
p4838
sg21
F0.07
sg24
S'Neoglyphidodon '
p4839
sg28
F0.12340019340858457
sg31
F1.297
sg34
S'8500'
p4840
sg38
F0.262
sg45
S'Pomac'
p4841
sg49
I20
sg52
F0.36615610692830697
sg55
S'line'
p4842
sg59
S'500'
p4843
sg63
I14
sg66
S'18'
p4844
ssg15
S'McC94-111'
p4845
sbsI424
(idataset.study
Study
p4846
(dp4847
g7
I424
sg8
(dp4848
g10
F0.0
sg17
S'Scarus niger'
p4849
sg21
F1.67
sg24
S'Scarus '
p4850
sg28
F0.13506045053466986
sg31
F0.0
sg34
S'8500'
p4851
sg38
F2.657
sg45
S'Scari'
p4852
sg49
I20
sg52
F-0.9627916592984663
sg55
S'line'
p4853
sg59
S'500'
p4854
sg63
I14
sg66
S'35'
p4855
ssg15
S'McC94-112'
p4856
sbsI425
(idataset.study
Study
p4857
(dp4858
g7
I425
sg8
(dp4859
g10
F0.15
sg17
S'Scarus rubroviolaceus'
p4860
sg21
F5.9
sg24
S'Scarus '
p4861
sg28
F0.14910218207526368
sg31
F0.447
sg34
S'8500'
p4862
sg38
F6.398
sg45
S'Scari'
p4863
sg49
I20
sg52
F-1.3717891689232256
sg55
S'line'
p4864
sg59
S'500'
p4865
sg63
I14
sg66
S'75'
p4866
ssg15
S'McC94-113'
p4867
sbsI426
(idataset.study
Study
p4868
(dp4869
g7
I426
sg8
(dp4870
g10
F0.26
sg17
S'Abudefduf saxatilis'
p4871
sg21
F0.4
sg24
S'Abudefduf '
p4872
sg34
S'3120'
p4873
sg41
S'Y'
p4874
sg45
S'Pomac'
p4875
sg49
I16
sg55
S'line'
p4876
sg59
S'240'
p4877
sg63
I10
sg66
S'15'
p4878
ssg15
S'Rakitin'
p4879
sbsI427
(idataset.study
Study
p4880
(dp4881
g7
I427
sg8
(dp4882
g10
F1.205
sg17
S'Aulostomus maculatus'
p4883
sg21
F1.135
sg24
S'Aulostomus '
p4884
sg34
S'3120'
p4885
sg41
S'Y'
p4886
sg45
S'Aulos'
p4887
sg49
I16
sg55
S'line'
p4888
sg59
S'240'
p4889
sg63
I10
sg66
S'100'
p4890
ssg15
S'Rakitin-2'
p4891
sbsI428
(idataset.study
Study
p4892
(dp4893
g7
I428
sg8
(dp4894
g10
F0.19
sg17
S'Bodianus rufus'
p4895
sg21
F0.4
sg24
S'Bodianus '
p4896
sg34
S'3120'
p4897
sg41
S'Y'
p4898
sg45
S'Labri'
p4899
sg49
I16
sg55
S'line'
p4900
sg59
S'240'
p4901
sg63
I10
sg66
S'40'
p4902
ssg15
S'Rakitin-3'
p4903
sbsI429
(idataset.study
Study
p4904
(dp4905
g7
I429
sg8
(dp4906
g10
F0.395
sg17
S'Cantherhines pullus'
p4907
sg21
F0.65
sg24
S'Cantherhines '
p4908
sg34
S'3120'
p4909
sg41
S'Y'
p4910
sg45
S'Balis'
p4911
sg49
I16
sg55
S'line'
p4912
sg59
S'240'
p4913
sg63
I10
sg66
S'20'
p4914
ssg15
S'Rakitin-4'
p4915
sbsI430
(idataset.study
Study
p4916
(dp4917
g7
I430
sg8
(dp4918
g10
F2.63
sg17
S'Caranx ruber'
p4919
sg21
F0.585
sg24
S'Caranx '
p4920
sg34
S'3120'
p4921
sg41
S'Y'
p4922
sg45
S'Caran'
p4923
sg49
I16
sg55
S'line'
p4924
sg59
S'240'
p4925
sg63
I10
sg66
S'69'
p4926
ssg15
S'Rakitin-5'
p4927
sbsI431
(idataset.study
Study
p4928
(dp4929
g7
I431
sg8
(dp4930
g10
F0.03
sg17
S'Chaetodon striatus'
p4931
sg21
F0.715
sg24
S'Chaetodon '
p4932
sg34
S'3120'
p4933
sg41
S'Y'
p4934
sg45
S'Chaet'
p4935
sg49
I16
sg55
S'line'
p4936
sg59
S'240'
p4937
sg63
I10
sg66
S'16'
p4938
ssg15
S'Rakitin-6'
p4939
sbsI432
(idataset.study
Study
p4940
(dp4941
g7
I432
sg8
(dp4942
g10
F14.255
sg17
S'Microspathodon chrysurus'
p4943
sg21
F20.165
sg24
S'Microspathodon '
p4944
sg34
S'3120'
p4945
sg41
S'Y'
p4946
sg45
S'Pomac'
p4947
sg49
I16
sg55
S'line'
p4948
sg59
S'240'
p4949
sg63
I10
sg66
S'21'
p4950
ssg15
S'Rakitin-7'
p4951
sbsI433
(idataset.study
Study
p4952
(dp4953
g7
I433
sg8
(dp4954
g10
F0.26
sg17
S'Mugil curema'
p4955
sg21
F0.33
sg24
S'Mugil '
p4956
sg34
S'3120'
p4957
sg41
S'Y'
p4958
sg45
S'Mugli'
p4959
sg49
I16
sg55
S'line'
p4960
sg59
S'240'
p4961
sg63
I10
sg66
S'38'
p4962
ssg15
S'Rakitin-8'
p4963
sbsI434
(idataset.study
Study
p4964
(dp4965
g7
I434
sg8
(dp4966
g10
F2.405
sg17
S'Mulloidichthys martinicus'
p4967
sg21
F4.085
sg24
S'Mulloidichthys '
p4968
sg34
S'3120'
p4969
sg41
S'Y'
p4970
sg45
S'Mulli'
p4971
sg49
I16
sg55
S'line'
p4972
sg59
S'240'
p4973
sg63
I10
sg66
S'40'
p4974
ssg15
S'Rakitin-9'
p4975
sbsI435
(idataset.study
Study
p4976
(dp4977
g7
I435
sg8
(dp4978
g10
F0.26
sg17
S'Myripristis jacobus'
p4979
sg21
F0.33
sg24
S'Myripristis '
p4980
sg34
S'3120'
p4981
sg41
S'Y'
p4982
sg45
S'Holoc'
p4983
sg49
I16
sg55
S'line'
p4984
sg59
S'240'
p4985
sg63
I10
sg66
S'25'
p4986
ssg15
S'Rakitin-10'
p4987
sbsI436
(idataset.study
Study
p4988
(dp4989
g7
I436
sg8
(dp4990
g10
F2.355
sg17
S'Pomacentrus spp.'
p4991
sg21
F3.385
sg24
S'Pomacentrus '
p4992
sg34
S'3120'
p4993
sg41
S'Y'
p4994
sg45
S'Pomac'
p4995
sg55
S'line'
p4996
sg59
S'240'
p4997
sg63
I10
sg49
I16
ssg15
S'Rakitin-11'
p4998
sbsI437
(idataset.study
Study
p4999
(dp5000
g7
I437
sg8
(dp5001
g10
F0.08
sg17
S'Pseudopeneus maculatus'
p5002
sg21
F1.05
sg24
S'Pseudopeneus '
p5003
sg34
S'3120'
p5004
sg41
S'Y'
p5005
sg45
S'Mulli'
p5006
sg49
I16
sg55
S'line'
p5007
sg59
S'240'
p5008
sg63
I10
sg66
S'28'
p5009
ssg15
S'Rakitin-12'
p5010
sbsI438
(idataset.study
Study
p5011
(dp5012
g7
I438
sg8
(dp5013
g10
F0.395
sg17
S'Rypticus saponaceus'
p5014
sg21
F0.75
sg24
S'Rypticus '
p5015
sg34
S'3120'
p5016
sg41
S'Y'
p5017
sg45
S'Serra'
p5018
sg49
I16
sg55
S'line'
p5019
sg59
S'240'
p5020
sg63
I10
sg66
S'33'
p5021
ssg15
S'Rakitin-13'
p5022
sbsI439
(idataset.study
Study
p5023
(dp5024
g7
I439
sg8
(dp5025
g10
F1.525
sg17
S'Scarus spp.'
p5026
sg21
F4.515
sg24
S'Scarus '
p5027
sg34
S'3120'
p5028
sg41
S'Y'
p5029
sg45
S'Scari'
p5030
sg55
S'line'
p5031
sg59
S'240'
p5032
sg63
I10
sg49
I16
ssg15
S'Rakitin-14'
p5033
sbsI440
(idataset.study
Study
p5034
(dp5035
g7
I440
sg8
(dp5036
g10
F0.91
sg17
S'Sparisoma spp.'
p5037
sg21
F3.08
sg24
S'Sparisoma '
p5038
sg34
S'3120'
p5039
sg41
S'Y'
p5040
sg45
S'Scari'
p5041
sg55
S'line'
p5042
sg59
S'240'
p5043
sg63
I10
sg49
I16
ssg15
S'Rakitin-15'
p5044
sbsI441
(idataset.study
Study
p5045
(dp5046
g7
I441
sg8
(dp5047
g10
F27.665
sg17
S'Acanthurus bahianus'
p5048
sg21
F55.085
sg24
S'Acanthurus '
p5049
sg34
S'3120'
p5050
sg41
S'Y'
p5051
sg45
S'Acant'
p5052
sg49
I16
sg55
S'line'
p5053
sg59
S'240'
p5054
sg63
I10
sg66
S'35'
p5055
ssg15
S'Rakitin-16'
p5056
sbsI442
(idataset.study
Study
p5057
(dp5058
g7
I442
sg8
(dp5059
g10
F4.82
sg17
S'Acanthurus coeruleus'
p5060
sg21
F19.235
sg24
S'Acanthurus '
p5061
sg34
S'3120'
p5062
sg41
S'Y'
p5063
sg45
S'Acant'
p5064
sg49
I16
sg55
S'line'
p5065
sg59
S'240'
p5066
sg63
I10
sg66
S'23'
p5067
ssg15
S'Rakitin-17'
p5068
sbsI443
(idataset.study
Study
p5069
(dp5070
g7
I443
sg8
(dp5071
g10
F0.655
sg17
S'Epinephelus fulvus'
p5072
sg21
F0.835
sg24
S'Epinephelus '
p5073
sg34
S'3120'
p5074
sg41
S'Y'
p5075
sg45
S'Serra'
p5076
sg49
I16
sg55
S'line'
p5077
sg59
S'240'
p5078
sg63
I10
sg66
S'41'
p5079
ssg15
S'Rakitin-18'
p5080
sbsI444
(idataset.study
Study
p5081
(dp5082
g7
I444
sg8
(dp5083
g10
F2.615
sg17
S'Haemulon aurolineatum'
p5084
sg21
F1.165
sg24
S'Haemulon '
p5085
sg34
S'3120'
p5086
sg41
S'Y'
p5087
sg45
S'Haemu'
p5088
sg49
I16
sg55
S'line'
p5089
sg59
S'240'
p5090
sg63
I10
sg66
S'25'
p5091
ssg15
S'Rakitin-19'
p5092
sbsI445
(idataset.study
Study
p5093
(dp5094
g7
I445
sg8
(dp5095
g10
F5.32
sg17
S'Haemulon chrysargyreum'
p5096
sg21
F9.58
sg24
S'Haemulon '
p5097
sg34
S'3120'
p5098
sg41
S'Y'
p5099
sg45
S'Haemu'
p5100
sg49
I16
sg55
S'line'
p5101
sg59
S'240'
p5102
sg63
I10
sg66
S'23'
p5103
ssg15
S'Rakitin-20'
p5104
sbsI446
(idataset.study
Study
p5105
(dp5106
g7
I446
sg8
(dp5107
g10
F1.525
sg17
S'Haemulon flavolineatum'
p5108
sg21
F3.1
sg24
S'Haemulon '
p5109
sg34
S'3120'
p5110
sg41
S'Y'
p5111
sg45
S'Haemu'
p5112
sg49
I16
sg55
S'line'
p5113
sg59
S'240'
p5114
sg63
I10
sg66
S'30'
p5115
ssg15
S'Rakitin-21'
p5116
sbsI447
(idataset.study
Study
p5117
(dp5118
g7
I447
sg8
(dp5119
g10
F0.605
sg17
S'Lutjanus mahogani'
p5120
sg21
F0.48
sg24
S'Lutjanus '
p5121
sg34
S'3120'
p5122
sg41
S'Y'
p5123
sg45
S'Lutja'
p5124
sg49
I16
sg55
S'line'
p5125
sg59
S'240'
p5126
sg63
I10
sg66
S'38'
p5127
ssg15
S'Rakitin-22'
p5128
sbsI448
(idataset.study
Study
p5129
(dp5130
g7
I448
sg8
(dp5131
g10
F1.405
sg17
S'Scarus vetula'
p5132
sg21
F8.97
sg24
S'Scarus '
p5133
sg34
S'3120'
p5134
sg41
S'Y'
p5135
sg45
S'Scari'
p5136
sg49
I16
sg55
S'line'
p5137
sg59
S'240'
p5138
sg63
I10
sg66
S'61'
p5139
ssg15
S'Rakitin-23'
p5140
sbsI449
(idataset.study
Study
p5141
(dp5142
g7
I449
sg8
(dp5143
g10
F0.98
sg17
S'Sparisoma viride'
p5144
sg21
F2.715
sg24
S'Sparisoma '
p5145
sg34
S'3120'
p5146
sg41
S'Y'
p5147
sg45
S'Scari'
p5148
sg49
I16
sg55
S'line'
p5149
sg59
S'240'
p5150
sg63
I10
sg66
S'54'
p5151
ssg15
S'Rakitin-24'
p5152
sbsI450
(idataset.study
Study
p5153
(dp5154
g7
I450
sg8
(dp5155
g10
F2.7
sg17
S'Cephalopholis hemistiktos'
p5156
sg21
F2.1
sg24
S'Cephalopholis '
p5157
sg34
S'25447'
p5158
sg41
S'Y'
p5159
sg45
S'Serra'
p5160
sg49
I81
sg55
S'point'
p5161
sg59
S'314'
p5162
sg63
I81
sg66
S'35'
p5163
ssg15
S'Rob92'
p5164
sbsI451
(idataset.study
Study
p5165
(dp5166
g7
I451
sg8
(dp5167
g10
F0.4
sg17
S'Scarus ferrugineus'
p5168
sg21
F1.1
sg24
S'Scarus '
p5169
sg34
S'6362'
p5170
sg41
S'Y'
p5171
sg45
S'Scari'
p5172
sg49
I81
sg55
S'point'
p5173
sg59
S'79'
p5174
sg63
I81
sg66
S'41'
p5175
ssg15
S'Rob92-2'
p5176
sbsI452
(idataset.study
Study
p5177
(dp5178
g7
I452
sg8
(dp5179
g10
F0.0
sg17
S'Aethaloperca rogaa'
p5180
sg21
F0.0
sg24
S'Aethaloperca '
p5181
sg34
S'25447'
p5182
sg41
S'Y'
p5183
sg45
S'Serra'
p5184
sg49
I81
sg55
S'point'
p5185
sg59
S'314'
p5186
sg63
I81
sg66
S'60'
p5187
ssg15
S'Rob92-3'
p5188
sbsI453
(idataset.study
Study
p5189
(dp5190
g7
I453
sg8
(dp5191
g10
F0.9
sg17
S'Cephalopholis miniata'
p5192
sg21
F2.8
sg24
S'Cephalopholis '
p5193
sg34
S'25447'
p5194
sg41
S'Y'
p5195
sg45
S'Serra'
p5196
sg49
I81
sg55
S'point'
p5197
sg59
S'314'
p5198
sg63
I81
sg66
S'41'
p5199
ssg15
S'Rob92-4'
p5200
sbsI454
(idataset.study
Study
p5201
(dp5202
g7
I454
sg8
(dp5203
g10
F0.5
sg17
S'Epinephelus fasciatus'
p5204
sg21
F0.1
sg24
S'Epinephelus '
p5205
sg34
S'25447'
p5206
sg41
S'Y'
p5207
sg45
S'Serra'
p5208
sg49
I81
sg55
S'point'
p5209
sg59
S'314'
p5210
sg63
I81
sg66
S'35'
p5211
ssg15
S'Rob92-5'
p5212
sbsI455
(idataset.study
Study
p5213
(dp5214
g7
I455
sg8
(dp5215
g10
F0.0
sg17
S'Naso lituratus'
p5216
sg21
F0.3
sg24
S'Naso '
p5217
sg34
S'25447'
p5218
sg41
S'Y'
p5219
sg45
S'Acant'
p5220
sg49
I81
sg55
S'point'
p5221
sg59
S'314'
p5222
sg63
I81
sg66
S'30'
p5223
ssg15
S'Rob92-6'
p5224
sbsI456
(idataset.study
Study
p5225
(dp5226
g7
I456
sg8
(dp5227
g10
F2.1
sg17
S'Naso unicornis'
p5228
sg21
F0.1
sg24
S'Naso '
p5229
sg34
S'25447'
p5230
sg41
S'Y'
p5231
sg45
S'Acant'
p5232
sg49
I81
sg55
S'point'
p5233
sg59
S'314'
p5234
sg63
I81
sg66
S'70'
p5235
ssg15
S'Rob92-7'
p5236
sbsI457
(idataset.study
Study
p5237
(dp5238
g7
I457
sg8
(dp5239
g10
F0.2
sg17
S'Zebrasoma veliferum'
p5240
sg21
F1.7
sg24
S'Zebrasoma '
p5241
sg34
S'25447'
p5242
sg41
S'Y'
p5243
sg45
S'Acant'
p5244
sg49
I81
sg55
S'point'
p5245
sg59
S'314'
p5246
sg63
I81
sg66
S'40'
p5247
ssg15
S'Rob92-8'
p5248
sbsI458
(idataset.study
Study
p5249
(dp5250
g7
I458
sg8
(dp5251
g10
F5.1
sg17
S'Acanthurus nigrofuscus'
p5252
sg21
F2.1
sg24
S'Acanthurus '
p5253
sg34
S'25447'
p5254
sg41
S'Y'
p5255
sg45
S'Acant'
p5256
sg49
I81
sg55
S'point'
p5257
sg59
S'314'
p5258
sg63
I81
sg66
S'21'
p5259
ssg15
S'Rob92-9'
p5260
sbsI459
(idataset.study
Study
p5261
(dp5262
g7
I459
sg8
(dp5263
g10
F0.6
sg17
S'Hipposcarus harid'
p5264
sg21
F0.0
sg24
S'Hipposcarus '
p5265
sg34
S'6362'
p5266
sg41
S'Y'
p5267
sg45
S'Scari'
p5268
sg49
I81
sg55
S'point'
p5269
sg59
S'79'
p5270
sg63
I81
sg66
S'75'
p5271
ssg15
S'Rob92-10'
p5272
sbsI460
(idataset.study
Study
p5273
(dp5274
g7
I460
sg8
(dp5275
g10
F1.6
sg17
S'Scarus niger'
p5276
sg21
F1.1
sg24
S'Scarus '
p5277
sg34
S'6362'
p5278
sg41
S'Y'
p5279
sg45
S'Scari'
p5280
sg49
I81
sg55
S'point'
p5281
sg59
S'79'
p5282
sg63
I81
sg66
S'35'
p5283
ssg15
S'Rob92-11'
p5284
sbsI461
(idataset.study
Study
p5285
(dp5286
g7
I461
sg8
(dp5287
g10
F0.344
sg17
S'Acanthurus chirurgus'
p5288
sg21
F0.258
sg24
S'Acanthurus '
p5289
sg34
S'12252'
p5290
sg41
S'Y'
p5291
sg45
S'Acant'
p5292
sg49
I40
sg55
S'point'
p5293
sg59
S'314'
p5294
sg63
I38
sg66
S'25'
p5295
ssg15
S'Rob95'
p5296
sbsI462
(idataset.study
Study
p5297
(dp5298
g7
I462
sg8
(dp5299
g10
F0.087
sg17
S'Anisotremus surinamensis'
p5300
sg21
F0.139
sg24
S'Anisotremus '
p5301
sg34
S'3063'
p5302
sg41
S'Y'
p5303
sg45
S'Haemu'
p5304
sg49
I40
sg55
S'point'
p5305
sg59
S'79'
p5306
sg63
I38
sg66
S'65'
p5307
ssg15
S'Rob95-2'
p5308
sbsI463
(idataset.study
Study
p5309
(dp5310
g7
I463
sg8
(dp5311
g10
F0.028
sg17
S'Epinephelus adscensionis'
p5312
sg21
F0.024
sg24
S'Epinephelus '
p5313
sg34
S'12252'
p5314
sg41
S'Y'
p5315
sg45
S'Serra'
p5316
sg49
I40
sg55
S'point'
p5317
sg59
S'314'
p5318
sg63
I38
sg66
S'60'
p5319
ssg15
S'Rob95-3'
p5320
sbsI464
(idataset.study
Study
p5321
(dp5322
g7
I464
sg8
(dp5323
g10
F0.388
sg17
S'Epinephelus cruentata'
p5324
sg21
F0.716
sg24
S'Epinephelus '
p5325
sg34
S'12252'
p5326
sg41
S'Y'
p5327
sg45
S'Serra'
p5328
sg49
I40
sg55
S'point'
p5329
sg59
S'314'
p5330
sg63
I38
sg66
S'35'
p5331
ssg15
S'Rob95-4'
p5332
sbsI465
(idataset.study
Study
p5333
(dp5334
g7
I465
sg8
(dp5335
g10
F0.031
sg17
S'Epinephelus guttatus'
p5336
sg21
F0.024
sg24
S'Epinephelus '
p5337
sg34
S'12252'
p5338
sg41
S'Y'
p5339
sg45
S'Serra'
p5340
sg49
I40
sg55
S'point'
p5341
sg59
S'314'
p5342
sg63
I38
sg66
S'67'
p5343
ssg15
S'Rob95-5'
p5344
sbsI466
(idataset.study
Study
p5345
(dp5346
g7
I466
sg8
(dp5347
g10
F0.4
sg17
S'Haemulon carbonarium'
p5348
sg21
F0.4
sg24
S'Haemulon '
p5349
sg34
S'3063'
p5350
sg41
S'Y'
p5351
sg45
S'Haemu'
p5352
sg49
I40
sg55
S'point'
p5353
sg59
S'79'
p5354
sg63
I38
sg66
S'36'
p5355
ssg15
S'Rob95-6'
p5356
sbsI467
(idataset.study
Study
p5357
(dp5358
g7
I467
sg8
(dp5359
g10
F0.0
sg17
S'Haemulon macrostomum'
p5360
sg21
F0.03
sg24
S'Haemulon '
p5361
sg34
S'3063'
p5362
sg41
S'Y'
p5363
sg45
S'Haemu'
p5364
sg49
I40
sg55
S'point'
p5365
sg59
S'79'
p5366
sg63
I38
sg66
S'43'
p5367
ssg15
S'Rob95-7'
p5368
sbsI468
(idataset.study
Study
p5369
(dp5370
g7
I468
sg8
(dp5371
g10
F0.288
sg17
S'Lutjanus apodus'
p5372
sg21
F0.442
sg24
S'Lutjanus '
p5373
sg34
S'12252'
p5374
sg41
S'Y'
p5375
sg45
S'Lutja'
p5376
sg49
I40
sg55
S'point'
p5377
sg59
S'314'
p5378
sg63
I38
sg66
S'60'
p5379
ssg15
S'Rob95-8'
p5380
sbsI469
(idataset.study
Study
p5381
(dp5382
g7
I469
sg8
(dp5383
g10
F0.028
sg17
S'Mycteroperca insterstitialis'
p5384
sg21
F0.0
sg24
S'Mycteroperca '
p5385
sg34
S'12252'
p5386
sg41
S'Y'
p5387
sg45
S'Serra'
p5388
sg49
I40
sg55
S'point'
p5389
sg59
S'314'
p5390
sg63
I38
sg66
S'70'
p5391
ssg15
S'Rob95-9'
p5392
sbsI470
(idataset.study
Study
p5393
(dp5394
g7
I470
sg8
(dp5395
g10
F0.078
sg17
S'Mycteroperca tigris'
p5396
sg21
F0.052
sg24
S'Mycteroperca '
p5397
sg34
S'12252'
p5398
sg41
S'Y'
p5399
sg45
S'Serra'
p5400
sg49
I40
sg55
S'point'
p5401
sg59
S'314'
p5402
sg63
I38
sg66
S'100'
p5403
ssg15
S'Rob95-10'
p5404
sbsI471
(idataset.study
Study
p5405
(dp5406
g7
I471
sg8
(dp5407
g10
F0.0
sg17
S'Scarus coeruleus'
p5408
sg21
F0.07
sg24
S'Scarus '
p5409
sg34
S'3063'
p5410
sg41
S'Y'
p5411
sg45
S'Scari'
p5412
sg49
I40
sg55
S'point'
p5413
sg59
S'79'
p5414
sg63
I38
sg66
S'90'
p5415
ssg15
S'Rob95-11'
p5416
sbsI472
(idataset.study
Study
p5417
(dp5418
g7
I472
sg8
(dp5419
g10
F1.685
sg17
S'Scarus taeniopterus'
p5420
sg21
F2.242
sg24
S'Scarus '
p5421
sg34
S'3063'
p5422
sg41
S'Y'
p5423
sg45
S'Scari'
p5424
sg49
I40
sg55
S'point'
p5425
sg59
S'79'
p5426
sg63
I38
sg66
S'35'
p5427
ssg15
S'Rob95-12'
p5428
sbsI473
(idataset.study
Study
p5429
(dp5430
g7
I473
sg8
(dp5431
g10
F2.0
sg17
S'Sparisoma aurofrenatum'
p5432
sg21
F2.016
sg24
S'Sparisoma '
p5433
sg34
S'3063'
p5434
sg41
S'Y'
p5435
sg45
S'Scari'
p5436
sg49
I40
sg55
S'point'
p5437
sg59
S'79'
p5438
sg63
I38
sg66
S'28'
p5439
ssg15
S'Rob95-13'
p5440
sbsI474
(idataset.study
Study
p5441
(dp5442
g7
I474
sg8
(dp5443
g10
F0.256
sg17
S'Sparisoma rubripinne'
p5444
sg21
F0.303
sg24
S'Sparisoma '
p5445
sg34
S'3063'
p5446
sg41
S'Y'
p5447
sg45
S'Scari'
p5448
sg49
I40
sg55
S'point'
p5449
sg59
S'79'
p5450
sg63
I38
sg66
S'46'
p5451
ssg15
S'Rob95-14'
p5452
sbsI475
(idataset.study
Study
p5453
(dp5454
g7
I475
sg8
(dp5455
g10
F3.976
sg17
S'Acanthurus bahianus'
p5456
sg21
F3.463
sg24
S'Acanthurus '
p5457
sg34
S'12252'
p5458
sg41
S'Y'
p5459
sg45
S'Acant'
p5460
sg49
I40
sg55
S'point'
p5461
sg59
S'314'
p5462
sg63
I38
sg66
S'35'
p5463
ssg15
S'Rob95-15'
p5464
sbsI476
(idataset.study
Study
p5465
(dp5466
g7
I476
sg8
(dp5467
g10
F7.507
sg17
S'Acanthurus coeruleus'
p5468
sg21
F4.871
sg24
S'Acanthurus '
p5469
sg34
S'12252'
p5470
sg41
S'Y'
p5471
sg45
S'Acant'
p5472
sg49
I40
sg55
S'point'
p5473
sg59
S'314'
p5474
sg63
I38
sg66
S'23'
p5475
ssg15
S'Rob95-16'
p5476
sbsI477
(idataset.study
Study
p5477
(dp5478
g7
I477
sg8
(dp5479
g10
F1.995
sg17
S'Epinephelus fulvus'
p5480
sg21
F2.953
sg24
S'Epinephelus '
p5481
sg34
S'12252'
p5482
sg41
S'Y'
p5483
sg45
S'Serra'
p5484
sg49
I40
sg55
S'point'
p5485
sg59
S'314'
p5486
sg63
I38
sg66
S'41'
p5487
ssg15
S'Rob95-17'
p5488
sbsI478
(idataset.study
Study
p5489
(dp5490
g7
I478
sg8
(dp5491
g10
F0.0
sg17
S'Haemulon aurolineatum'
p5492
sg21
F0.158
sg24
S'Haemulon '
p5493
sg34
S'3063'
p5494
sg41
S'Y'
p5495
sg45
S'Haemu'
p5496
sg49
I40
sg55
S'point'
p5497
sg59
S'79'
p5498
sg63
I38
sg66
S'25'
p5499
ssg15
S'Rob95-18'
p5500
sbsI479
(idataset.study
Study
p5501
(dp5502
g7
I479
sg8
(dp5503
g10
F0.3
sg17
S'Haemulon chrysargyreum'
p5504
sg21
F0.642
sg24
S'Haemulon '
p5505
sg34
S'3063'
p5506
sg41
S'Y'
p5507
sg45
S'Haemu'
p5508
sg49
I40
sg55
S'point'
p5509
sg59
S'79'
p5510
sg63
I38
sg66
S'23'
p5511
ssg15
S'Rob95-19'
p5512
sbsI480
(idataset.study
Study
p5513
(dp5514
g7
I480
sg8
(dp5515
g10
F0.995
sg17
S'Haemulon flavolineatum'
p5516
sg21
F0.521
sg24
S'Haemulon '
p5517
sg34
S'3063'
p5518
sg41
S'Y'
p5519
sg45
S'Haemu'
p5520
sg49
I40
sg55
S'point'
p5521
sg59
S'79'
p5522
sg63
I38
sg66
S'30'
p5523
ssg15
S'Rob95-20'
p5524
sbsI481
(idataset.study
Study
p5525
(dp5526
g7
I481
sg8
(dp5527
g10
F0.244
sg17
S'Lutjanus mahogani'
p5528
sg21
F0.421
sg24
S'Lutjanus '
p5529
sg34
S'12252'
p5530
sg41
S'Y'
p5531
sg45
S'Lutja'
p5532
sg49
I40
sg55
S'point'
p5533
sg59
S'314'
p5534
sg63
I38
sg66
S'38'
p5535
ssg15
S'Rob95-21'
p5536
sbsI482
(idataset.study
Study
p5537
(dp5538
g7
I482
sg8
(dp5539
g10
F0.154
sg17
S'Scarus vetula'
p5540
sg21
F0.1
sg24
S'Scarus '
p5541
sg34
S'3063'
p5542
sg41
S'Y'
p5543
sg45
S'Scari'
p5544
sg49
I40
sg55
S'point'
p5545
sg59
S'79'
p5546
sg63
I38
sg66
S'61'
p5547
ssg15
S'Rob95-22'
p5548
sbsI483
(idataset.study
Study
p5549
(dp5550
g7
I483
sg8
(dp5551
g10
F1.778
sg17
S'Sparisoma viride'
p5552
sg21
F2.037
sg24
S'Sparisoma '
p5553
sg34
S'3063'
p5554
sg41
S'Y'
p5555
sg45
S'Scari'
p5556
sg49
I40
sg55
S'point'
p5557
sg59
S'79'
p5558
sg63
I38
sg66
S'54'
p5559
ssg15
S'Rob95-23'
p5560
sbsI484
(idataset.study
Study
p5561
(dp5562
g7
I484
sg8
(dp5563
g10
F1.26
sg17
S'Acanthurus blochii'
p5564
sg21
F1.36
sg24
S'Acanthurus '
p5565
sg28
F0.20001334105051835
sg31
F3.984
sg34
S'5000'
p5566
sg38
F4.301
sg45
S'Acant'
p5567
sg49
I10
sg52
F-0.023100693079074676
sg55
S'line'
p5568
sg59
S'500'
p5569
sg63
I10
sg66
S'42'
p5570
ssg15
S'Wanti'
p5571
sbsI485
(idataset.study
Study
p5572
(dp5573
g7
I485
sg8
(dp5574
g10
F1.05
sg17
S'Chlorurus sordidus'
p5575
sg21
F7.29
sg24
S'Chlorurus'
p5576
sg28
F0.20329138950690379
sg31
F3.32
sg34
S'5000'
p5577
sg38
F23.053
sg45
S'Scari'
p5578
sg49
I10
sg52
F-0.3628437408529334
sg55
S'line'
p5579
sg59
S'500'
p5580
sg63
I10
sg66
S'35'
p5581
ssg15
S'Wanti-2'
p5582
sbsI486
(idataset.study
Study
p5583
(dp5584
g7
I486
sg8
(dp5585
g10
F0.95
sg17
S'Choerodon graphicus'
p5586
sg21
F4.73
sg24
S'Choerodon '
p5587
sg28
F0.20281478259110014
sg31
F3.004
sg34
S'5000'
p5588
sg38
F14.958
sg45
S'Labri'
p5589
sg49
I10
sg52
F-0.3355462764567733
sg55
S'line'
p5590
sg59
S'500'
p5591
sg63
I10
sg66
S'46'
p5592
ssg15
S'Wanti-3'
p5593
sbsI487
(idataset.study
Study
p5594
(dp5595
g7
I487
sg8
(dp5596
g10
F0.55
sg17
S'Hemigymnus melapterus'
p5597
sg21
F2.19
sg24
S'Hemigymnus '
p5598
sg28
F0.2024191924498338
sg31
F1.739
sg34
S'5000'
p5599
sg38
F6.925
sg45
S'Labri'
p5600
sg49
I10
sg52
F-0.31107506809989155
sg55
S'line'
p5601
sg59
S'500'
p5602
sg63
I10
sg66
S'50'
p5603
ssg15
S'Wanti-4'
p5604
sbsI488
(idataset.study
Study
p5605
(dp5606
g7
I488
sg8
(dp5607
g10
F0.03
sg17
S'Lethrinus atkinsoni'
p5608
sg21
F1.18
sg24
S'Lethrinus '
p5609
sg28
F0.20435355561699017
sg31
F0.095
sg34
S'5000'
p5610
sg38
F3.731
sg45
S'Lethr'
p5611
sg49
I10
sg52
F-0.41730351625598233
sg55
S'line'
p5612
sg59
S'500'
p5613
sg63
I10
sg66
S'45'
p5614
ssg15
S'Wanti-5'
p5615
sbsI489
(idataset.study
Study
p5616
(dp5617
g7
I489
sg8
(dp5618
g10
F1.23
sg17
S'Lutjanus fulviflamma'
p5619
sg21
F2.52
sg24
S'Lutjanus '
p5620
sg28
F0.20097035921958112
sg31
F3.89
sg34
S'5000'
p5621
sg38
F7.969
sg45
S'Lutja'
p5622
sg49
I10
sg52
F-0.19701362588218133
sg55
S'line'
p5623
sg59
S'500'
p5624
sg63
I10
sg66
S'30'
p5625
ssg15
S'Wanti-6'
p5626
sbsI490
(idataset.study
Study
p5627
(dp5628
g7
I490
sg8
(dp5629
g10
F0.18
sg17
S'Naso unicornis'
p5630
sg21
F2.08
sg24
S'Naso '
p5631
sg28
F0.2037971907638344
sg31
F0.569
sg34
S'5000'
p5632
sg38
F6.578
sg45
S'Acant'
p5633
sg49
I10
sg52
F-0.3897276363736295
sg55
S'line'
p5634
sg59
S'500'
p5635
sg63
I10
sg66
S'70'
p5636
ssg15
S'Wanti-7'
p5637
sbsI491
(idataset.study
Study
p5638
(dp5639
g7
I491
sg8
(dp5640
g10
F0.14
sg17
S'Parupeneus ciliatus'
p5641
sg21
F1.31
sg24
S'Parupeneus '
p5642
sg28
F0.2036156379056446
sg31
F0.443
sg34
S'5000'
p5643
sg38
F4.143
sg45
S'Mulli'
p5644
sg49
I10
sg52
F-0.38029661611140225
sg55
S'line'
p5645
sg59
S'500'
p5646
sg63
I10
sg66
S'40'
p5647
ssg15
S'Wanti-8'
p5648
sbsI492
(idataset.study
Study
p5649
(dp5650
g7
I492
sg8
(dp5651
g10
F0.24
sg17
S'Plectropomus leopardus'
p5652
sg21
F1.64
sg24
S'Plectropomus '
p5653
sg28
F0.20327165197132735
sg31
F0.759
sg34
S'5000'
p5654
sg38
F5.186
sg45
S'Serra'
p5655
sg49
I10
sg52
F-0.3617541690887526
sg55
S'line'
p5656
sg59
S'500'
p5657
sg63
I10
sg66
S'70'
p5658
ssg15
S'Wanti-9'
p5659
sbsI493
(idataset.study
Study
p5660
(dp5661
g7
I493
sg8
(dp5662
g10
F0.56
sg17
S'Scarus schlegeli'
p5663
sg21
F1.74
sg24
S'Scarus '
p5664
sg28
F0.20191112081407256
sg31
F1.771
sg34
S'5000'
p5665
sg38
F5.502
sg45
S'Scari'
p5666
sg49
I10
sg52
F-0.27648658658767117
sg55
S'line'
p5667
sg59
S'500'
p5668
sg63
I10
sg66
S'38'
p5669
ssg15
S'Wanti-10'
p5670
sbsI494
(idataset.study
Study
p5671
(dp5672
g7
I494
sg8
(dp5673
g10
F1.09
sg17
S'Siganus doliatus'
p5674
sg21
F0.69
sg24
S'Siganus '
p5675
sg28
F0.20044082935583113
sg31
F3.447
sg34
S'5000'
p5676
sg38
F2.182
sg45
S'Sigan'
p5677
sg49
I10
sg52
F0.13278996284826824
sg55
S'line'
p5678
sg59
S'500'
p5679
sg63
I10
sg66
S'24'
p5680
ssg15
S'Wanti-11'
p5681
sbssS'conf_level'
p5682
I95
sS'dirty'
p5683
I01
sS'variable_groups'
p5684
(lp5685
(iee_model
VariableGroup
p5686
(dp5687
S'name'
p5688
S"Hedges' d column group"
p5689
sS'data_keys'
p5690
(lp5691
S'control_mean'
p5692
aS'control_std_dev'
p5693
aS'control_sample_size'
p5694
aS'experimental_mean'
p5695
aS'experimental_std_dev'
p5696
aS'experimental_sample_size'
p5697
asS'effect_keys'
p5698
(lp5699
I1
aI0
aI2
aI3
aI4
asS'metric'
p5700
I0
sS'data_type'
p5701
I0
sS'group_data'
p5702
(dp5703
I0
g52
sI1
g28
sI2
NsI3
NsI4
Nsg5696
g31
sg5697
g49
sg5693
g38
sg5694
g63
sS'experimental_response'
p5704
NsS'sample_size'
p5705
NsS'experimental_noresponse'
p5706
Nsg5695
g10
sS'control_noresponse'
p5707
NsS'correlation'
p5708
NsS'control_response'
p5709
Nsg5692
g21
ssbasS'last_analysis_selections'
p5710
(dp5711
S'bootstrap_params'
p5712
Nsg5701
I0
sS'included_studies'
p5713
c__builtin__
set
p5714
((lp5715
g4747
ag2603
ag3120
ag2416
ag3428
ag2922
ag3812
ag3439
ag3549
ag3450
ag3648
ag4516
ag3483
ag5660
ag3461
ag3472
ag4318
ag2427
ag4791
ag2812
ag3164
ag2614
ag3494
ag5572
ag2966
ag3505
ag3516
ag3692
ag4560
ag3527
ag4648
ag3538
ag2823
ag4351
ag2625
ag4835
ag2350
ag3779
ag4197
ag390
ag2988
ag5616
ag2372
ag3098
ag3900
ag410
ag3735
ag420
ag4153
ag430
ag4054
ag1791
ag2834
ag440
ag1348
ag3252
ag450
ag4241
ag4604
ag4714
ag460
ag4329
ag3054
ag3944
ag470
ag480
ag4439
ag490
ag2845
ag1360
ag3571
ag500
ag5627
ag510
ag4285
ag4065
ag4758
ag520
ag3955
ag530
ag3988
ag540
ag3823
ag550
ag3065
ag4725
ag2856
ag560
ag3263
ag4483
ag570
ag3340
ag4340
ag582
ag4802
ag594
ag3131
ag4615
ag606
ag2977
ag3867
ag618
ag2867
ag3889
ag3274
ag4857
ag630
ag3659
ag4527
ag642
ag5649
ag654
ag4098
ag4846
ag666
ag4164
ag678
ag4637
ag3021
ag2647
ag3911
ag2471
ag2878
ag2658
ag3285
ag3702
ag2669
ag4571
ag5671
ag2680
ag4494
ag4406
ag2636
ag2691
ag4549
ag2702
ag4472
ag2713
ag2889
ag4032
ag3296
ag2482
ag4109
ag2735
ag3746
ag2746
ag3582
ag4450
ag2757
ag4626
ag2768
ag3615
ag4252
ag2779
ag2493
ag3757
ag2900
ag2790
ag3307
ag3087
ag2801
ag3790
ag3856
ag3626
ag1539
ag3043
ag3999
ag1551
ag3417
ag4296
ag1563
ag2911
ag4769
ag3318
ag1575
ag2504
ag4186
ag1587
ag2944
ag1599
ag1611
ag3670
ag4538
ag1623
ag4131
ag1635
ag2460
ag2515
ag4813
ag1647
ag4582
ag3329
ag4175
ag1659
ag4021
ag5594
ag5583
ag1671
ag3878
ag1683
ag3713
ag1695
ag4263
ag1707
ag2933
ag4373
ag2449
ag1719
ag2526
ag3230
ag4219
ag1731
ag4692
ag4736
ag1743
ag3032
ag3922
ag3801
ag1755
ag3724
ag1767
ag1779
ag400
ag2537
ag380
ag3351
ag1803
ag3966
ag4417
ag1815
ag3142
ag3076
ag4076
ag1827
ag4208
ag1839
ag2394
ag4670
ag1851
ag2361
ag3362
ag1863
ag2548
ag4461
ag1875
ag4307
ag3010
ag1887
ag4780
ag1899
ag4010
ag1911
ag2955
ag3845
ag1923
ag2559
ag1935
ag3637
ag3373
ag4505
ag3175
ag3186
ag2438
ag4824
ag3241
ag4362
ag3197
ag3153
ag5638
ag3593
ag3208
ag4043
ag5561
ag2999
ag3219
ag2383
ag3384
ag5
ag2570
ag3681
ag83
ag3834
ag71
ag4384
ag3977
ag1372
ag1384
ag4659
ag5605
ag1396
ag3933
ag2581
ag4681
ag1408
ag3395
ag1420
ag4593
ag1432
ag3560
ag4428
ag1444
ag4395
ag1456
ag4230
ag4703
ag1468
ag2405
ag4087
ag3406
ag1479
ag2592
ag3109
ag1491
ag3768
ag1503
ag3604
ag4120
ag1515
ag4142
ag1527
ag4274
atp5716
Rp5717
sS'data_locations'
p5718
(dp5719
I0
(dp5720
g5695
I11
sS'effect_size'
p5721
I15
sg5696
I13
sg5697
I9
sg5693
I14
sg5694
I10
sS'variance'
p5722
I16
sg5692
I12
ssI1
(dp5723
sI2
(dp5724
ssS'cov_2_ref_values'
p5725
Nsg5682
NsS'ma_param_vals'
p5726
(dp5727
S'conf.level'
p5728
F95.0
sS'digits'
p5729
I3
sS'fp_col2_str'
p5730
V[default]
p5731
sS'fp_show_col4'
p5732
I00
sS'fp_xlabel'
p5733
V[default]
p5734
sS'fp_col4_str'
p5735
VEv/Ctrl
p5736
sS'fp_xticks'
p5737
S'[default]'
p5738
sS'fp_col3_str'
p5739
VEv/Trt
p5740
sS'fp_show_col3'
p5741
I00
sS'fp_show_col2'
p5742
I01
sS'fp_show_col1'
p5743
I01
sS'fp_plot_lb'
p5744
g5738
sS'fp_outpath'
p5745
V./r_tmp/forest.png
p5746
sS'rm.method'
p5747
S'DL'
p5748
sS'fp_plot_ub'
p5749
g5738
sS'fp_col1_str'
p5750
VStudies
p5751
sS'measure'
p5752
S'SMD'
p5753
sS'fp_show_summary_line'
p5754
I01
ssS'subgroup_variable'
p5755
g5711
sS'fixed_effects'
p5756
NsS'included_covariates'
p5757
NsS'method'
p5758
S'continuous.random'
p5759
sS'covs_to_values'
p5760
Nsg5700
I0
sS'selected_cov'
p5761
NssS'dataset'
p5762
(idataset.ee_dataset
EEDataSet
p5763
(dp5764
S'variable_collection'
p5765
ccopy_reg
_reconstructor
p5766
(cdataset.variable_collection
VariableCollection
p5767
c__builtin__
object
p5768
Ntp5769
Rp5770
(dp5771
S'item_class'
p5772
cdataset.variable
Variable
p5773
sS'ids_to_items'
p5774
(dp5775
I0
g17
sI1
g24
sI2
g66
sI4
g55
sI5
g59
sI6
g34
sI7
g41
sI8
g45
sI9
g49
sI10
g63
sI11
g10
sI12
g21
sI13
g31
sI14
g38
sI15
g52
sI16
g28
ssbsS'study_collection'
p5776
g5766
(cdataset.study_collection
StudyCollection
p5777
g5768
Ntp5778
Rp5779
(dp5780
g5772
cdataset.study
Study
p5781
sg5774
(dp5782
I0
g5
sI1
g71
sI2
g83
sI3
g95
sI4
g106
sI5
g117
sI6
g128
sI7
g139
sI8
g150
sI9
g161
sI10
g172
sI11
g183
sI12
g194
sI13
g204
sI14
g215
sI15
g226
sI16
g237
sI17
g248
sI18
g259
sI19
g270
sI20
g281
sI21
g292
sI22
g303
sI23
g314
sI24
g325
sI25
g336
sI26
g347
sI27
g358
sI28
g369
sI29
g380
sI30
g390
sI31
g400
sI32
g410
sI33
g420
sI34
g430
sI35
g440
sI36
g450
sI37
g460
sI38
g470
sI39
g480
sI40
g490
sI41
g500
sI42
g510
sI43
g520
sI44
g530
sI45
g540
sI46
g550
sI47
g560
sI48
g570
sI49
g582
sI50
g594
sI51
g606
sI52
g618
sI53
g630
sI54
g642
sI55
g654
sI56
g666
sI57
g678
sI58
g690
sI59
g702
sI60
g713
sI61
g725
sI62
g737
sI63
g749
sI64
g761
sI65
g773
sI66
g785
sI67
g797
sI68
g809
sI69
g821
sI70
g833
sI71
g845
sI72
g857
sI73
g869
sI74
g881
sI75
g893
sI76
g905
sI77
g917
sI78
g929
sI79
g941
sI80
g953
sI81
g965
sI82
g977
sI83
g989
sI84
g1001
sI85
g1013
sI86
g1025
sI87
g1037
sI88
g1049
sI89
g1061
sI90
g1073
sI91
g1085
sI92
g1097
sI93
g1109
sI94
g1121
sI95
g1133
sI96
g1145
sI97
g1157
sI98
g1169
sI99
g1180
sI100
g1192
sI101
g1204
sI102
g1216
sI103
g1228
sI104
g1240
sI105
g1252
sI106
g1264
sI107
g1276
sI108
g1288
sI109
g1300
sI110
g1312
sI111
g1324
sI112
g1336
sI113
g1348
sI114
g1360
sI115
g1372
sI116
g1384
sI117
g1396
sI118
g1408
sI119
g1420
sI120
g1432
sI121
g1444
sI122
g1456
sI123
g1468
sI124
g1479
sI125
g1491
sI126
g1503
sI127
g1515
sI128
g1527
sI129
g1539
sI130
g1551
sI131
g1563
sI132
g1575
sI133
g1587
sI134
g1599
sI135
g1611
sI136
g1623
sI137
g1635
sI138
g1647
sI139
g1659
sI140
g1671
sI141
g1683
sI142
g1695
sI143
g1707
sI144
g1719
sI145
g1731
sI146
g1743
sI147
g1755
sI148
g1767
sI149
g1779
sI150
g1791
sI151
g1803
sI152
g1815
sI153
g1827
sI154
g1839
sI155
g1851
sI156
g1863
sI157
g1875
sI158
g1887
sI159
g1899
sI160
g1911
sI161
g1923
sI162
g1935
sI163
g1947
sI164
g1959
sI165
g1971
sI166
g1983
sI167
g1995
sI168
g2007
sI169
g2019
sI170
g2031
sI171
g2043
sI172
g2055
sI173
g2066
sI174
g2078
sI175
g2090
sI176
g2101
sI177
g2112
sI178
g2124
sI179
g2136
sI180
g2148
sI181
g2159
sI182
g2170
sI183
g2182
sI184
g2194
sI185
g2206
sI186
g2218
sI187
g2230
sI188
g2242
sI189
g2254
sI190
g2266
sI191
g2278
sI192
g2290
sI193
g2302
sI194
g2314
sI195
g2326
sI196
g2338
sI197
g2350
sI198
g2361
sI199
g2372
sI200
g2383
sI201
g2394
sI202
g2405
sI203
g2416
sI204
g2427
sI205
g2438
sI206
g2449
sI207
g2460
sI208
g2471
sI209
g2482
sI210
g2493
sI211
g2504
sI212
g2515
sI213
g2526
sI214
g2537
sI215
g2548
sI216
g2559
sI217
g2570
sI218
g2581
sI219
g2592
sI220
g2603
sI221
g2614
sI222
g2625
sI223
g2636
sI224
g2647
sI225
g2658
sI226
g2669
sI227
g2680
sI228
g2691
sI229
g2702
sI230
g2713
sI231
g2724
sI232
g2735
sI233
g2746
sI234
g2757
sI235
g2768
sI236
g2779
sI237
g2790
sI238
g2801
sI239
g2812
sI240
g2823
sI241
g2834
sI242
g2845
sI243
g2856
sI244
g2867
sI245
g2878
sI246
g2889
sI247
g2900
sI248
g2911
sI249
g2922
sI250
g2933
sI251
g2944
sI252
g2955
sI253
g2966
sI254
g2977
sI255
g2988
sI256
g2999
sI257
g3010
sI258
g3021
sI259
g3032
sI260
g3043
sI261
g3054
sI262
g3065
sI263
g3076
sI264
g3087
sI265
g3098
sI266
g3109
sI267
g3120
sI268
g3131
sI269
g3142
sI270
g3153
sI271
g3164
sI272
g3175
sI273
g3186
sI274
g3197
sI275
g3208
sI276
g3219
sI277
g3230
sI278
g3241
sI279
g3252
sI280
g3263
sI281
g3274
sI282
g3285
sI283
g3296
sI284
g3307
sI285
g3318
sI286
g3329
sI287
g3340
sI288
g3351
sI289
g3362
sI290
g3373
sI291
g3384
sI292
g3395
sI293
g3406
sI294
g3417
sI295
g3428
sI296
g3439
sI297
g3450
sI298
g3461
sI299
g3472
sI300
g3483
sI301
g3494
sI302
g3505
sI303
g3516
sI304
g3527
sI305
g3538
sI306
g3549
sI307
g3560
sI308
g3571
sI309
g3582
sI310
g3593
sI311
g3604
sI312
g3615
sI313
g3626
sI314
g3637
sI315
g3648
sI316
g3659
sI317
g3670
sI318
g3681
sI319
g3692
sI320
g3702
sI321
g3713
sI322
g3724
sI323
g3735
sI324
g3746
sI325
g3757
sI326
g3768
sI327
g3779
sI328
g3790
sI329
g3801
sI330
g3812
sI331
g3823
sI332
g3834
sI333
g3845
sI334
g3856
sI335
g3867
sI336
g3878
sI337
g3889
sI338
g3900
sI339
g3911
sI340
g3922
sI341
g3933
sI342
g3944
sI343
g3955
sI344
g3966
sI345
g3977
sI346
g3988
sI347
g3999
sI348
g4010
sI349
g4021
sI350
g4032
sI351
g4043
sI352
g4054
sI353
g4065
sI354
g4076
sI355
g4087
sI356
g4098
sI357
g4109
sI358
g4120
sI359
g4131
sI360
g4142
sI361
g4153
sI362
g4164
sI363
g4175
sI364
g4186
sI365
g4197
sI366
g4208
sI367
g4219
sI368
g4230
sI369
g4241
sI370
g4252
sI371
g4263
sI372
g4274
sI373
g4285
sI374
g4296
sI375
g4307
sI376
g4318
sI377
g4329
sI378
g4340
sI379
g4351
sI380
g4362
sI381
g4373
sI382
g4384
sI383
g4395
sI384
g4406
sI385
g4417
sI386
g4428
sI387
g4439
sI388
g4450
sI389
g4461
sI390
g4472
sI391
g4483
sI392
g4494
sI393
g4505
sI394
g4516
sI395
g4527
sI396
g4538
sI397
g4549
sI398
g4560
sI399
g4571
sI400
g4582
sI401
g4593
sI402
g4604
sI403
g4615
sI404
g4626
sI405
g4637
sI406
g4648
sI407
g4659
sI408
g4670
sI409
g4681
sI410
g4692
sI411
g4703
sI412
g4714
sI413
g4725
sI414
g4736
sI415
g4747
sI416
g4758
sI417
g4769
sI418
g4780
sI419
g4791
sI420
g4802
sI421
g4813
sI422
g4824
sI423
g4835
sI424
g4846
sI425
g4857
sI426
g4868
sI427
g4880
sI428
g4892
sI429
g4904
sI430
g4916
sI431
g4928
sI432
g4940
sI433
g4952
sI434
g4964
sI435
g4976
sI436
g4988
sI437
g4999
sI438
g5011
sI439
g5023
sI440
g5034
sI441
g5045
sI442
g5057
sI443
g5069
sI444
g5081
sI445
g5093
sI446
g5105
sI447
g5117
sI448
g5129
sI449
g5141
sI450
g5153
sI451
g5165
sI452
g5177
sI453
g5189
sI454
g5201
sI455
g5213
sI456
g5225
sI457
g5237
sI458
g5249
sI459
g5261
sI460
g5273
sI461
g5285
sI462
g5297
sI463
g5309
sI464
g5321
sI465
g5333
sI466
g5345
sI467
g5357
sI468
g5369
sI469
g5381
sI470
g5393
sI471
g5405
sI472
g5417
sI473
g5429
sI474
g5441
sI475
g5453
sI476
g5465
sI477
g5477
sI478
g5489
sI479
g5501
sI480
g5513
sI481
g5525
sI482
g5537
sI483
g5549
sI484
g5561
sI485
g5572
sI486
g5583
sI487
g5594
sI488
g5605
sI489
g5616
sI490
g5627
sI491
g5638
sI492
g5649
sI493
g5660
sI494
g5671
ssbsbsS'cols_2_vars'
p5783
(dp5784
I0
g17
sI1
g24
sI2
g66
sI4
g55
sI5
g59
sI6
g34
sI7
g41
sI8
g45
sI9
g49
sI10
g63
sI11
g10
sI12
g21
sI13
g31
sI14
g38
sI15
g52
sI16
g28
ssS'label_column_name_label'
p5785
S'study'
p5786
sb.